(dp0
S'320223001'
p1
(dp2
S'content'
p3
(lp4
(lp5
a(lp6
a(lp7
S'Hedo Turkoglu, SF'
p8
aS'35'
p9
aS'4-16'
p10
aS'1-9'
p11
aS'2-2'
p12
aS'0'
p13
aS'3'
p14
ag14
aS'4'
p15
aS'1'
p16
ag16
ag15
ag14
aS'+4'
p17
aS'11'
p18
aa(lp19
S'Ryan Anderson, PF'
p20
aS'31'
p21
aS'4-13'
p22
aS'2-6'
p23
aS'0-0'
p24
ag14
aS'2'
p25
aS'5'
p26
ag13
ag16
ag16
ag16
ag14
aS'+1'
p27
aS'10'
p28
aa(lp29
S'Dwight Howard, C'
p30
aS'40'
p31
aS'5-7'
p32
aS'0-0'
p33
aS'2-5'
p34
ag25
aS'10'
p35
aS'12'
p36
ag14
ag25
ag26
ag14
ag16
aS'-3'
p37
aS'12'
p38
aa(lp39
S'Jason Richardson, SG'
p40
aS'23'
p41
aS'3-10'
p42
aS'1-6'
p43
aS'0-0'
p44
ag13
ag26
ag26
ag14
ag25
ag13
ag16
ag16
aS'-1'
p45
aS'7'
p46
aa(lp47
S'Chris Duhon, PG'
p48
aS'28'
p49
aS'3-9'
p50
aS'0-4'
p51
aS'0-0'
p52
ag16
ag25
ag14
ag15
ag16
ag16
ag25
ag26
aS'+1'
p53
aS'6'
p54
aa(lp55
a(lp56
S'Quentin Richardson, SF'
p57
aS'8'
p58
aS'1-1'
p59
aS'1-1'
p60
aS'0-0'
p61
ag13
ag13
ag13
ag13
ag13
ag13
ag16
ag16
aS'-8'
p62
ag14
aa(lp63
S'J.J. Redick, SG'
p64
aS'25'
p65
aS'5-10'
p66
aS'2-4'
p67
aS'1-2'
p68
ag16
ag16
ag25
ag16
ag16
ag13
ag13
ag16
aS'-4'
p69
aS'13'
p70
aa(lp71
S'Von Wafer, SG'
p72
ag26
aS'1-1'
p73
aS'0-0'
p74
aS'0-0'
p75
ag13
ag13
ag13
ag13
ag13
ag13
ag13
ag13
aS'-1'
p76
ag25
aa(lp77
S'Glen Davis, PF'
p78
aS'21'
p79
aS'3-7'
p80
aS'0-0'
p81
aS'0-0'
p82
ag16
ag14
ag15
ag13
ag25
ag13
ag16
ag14
aS'-4'
p83
ag54
aa(lp84
S'Ishmael Smith, PG'
p85
aS'19'
p86
aS'2-7'
p87
aS'0-2'
p88
aS'4-4'
p89
ag25
ag14
ag26
ag15
ag25
ag13
ag13
ag13
aS'-8'
p90
ag58
aa(lp91
S'Earl Clark, F'
p92
ag15
aS'0-1'
p93
aS'0-0'
p94
aS'0-0'
p95
ag13
ag16
ag16
ag13
ag13
ag13
ag13
ag16
aS'-2'
p96
ag13
aa(lp97
S'DeAndre Liggins, G'
p98
aS"DNP COACH'S DECISION"
p99
aa(lp100
S'Daniel Orton, PF'
p101
aS"DNP COACH'S DECISION"
p102
aa(lp103
a(lp104
S''
p105
aS'31-82'
p106
aS'7-32'
p107
aS'9-13'
p108
aS'10'
p109
aS'30'
p110
aS'40'
p111
aS'19'
p112
aS'12'
p113
ag58
aS'13'
p114
aS'19'
p115
aS'\xc2\xa0'
p116
aS'78'
p117
aa(lp118
g105
aS'37.8%'
p119
aS'21.9%'
p120
aS'69.2%'
p121
ag105
aa(lp122
S"Fast break points:\xc2\xa0\xc2\xa0\xc2\xa014Points in the paint:\xc2\xa0\xc2\xa0\xc2\xa036Team TO ( points off ):\xc2\xa0\xc2\xa0\xc2\xa015 (14)+/- denotes team's net points while the player is on the court."
p123
aa(lp124
a(lp125
a(lp126
S'Josh Smith, PF'
p127
aS'43'
p128
aS'8-22'
p129
aS'1-1'
p130
aS'5-8'
p131
ag25
aS'10'
p132
aS'12'
p133
ag16
ag16
ag25
ag15
ag16
aS'-2'
p134
aS'22'
p135
aa(lp136
S'Marvin Williams, SF'
p137
aS'22'
p138
aS'0-3'
p139
aS'0-1'
p140
aS'2-2'
p141
ag25
ag15
ag54
ag16
ag16
ag13
ag13
ag13
aS'-1'
p142
ag25
aa(lp143
S'Zaza Pachulia, C'
p144
aS'40'
p145
aS'1-6'
p146
aS'0-0'
p147
aS'2-2'
p148
ag54
ag46
aS'13'
p149
ag15
ag25
ag13
ag14
ag15
aS'+5'
p150
ag15
aa(lp151
S'Kirk Hinrich, G'
p152
aS'25'
p153
aS'3-9'
p154
aS'0-2'
p155
aS'0-0'
p156
ag16
ag14
ag15
ag15
ag16
ag25
ag25
ag25
aS'+1'
p157
ag54
aa(lp158
S'Jeff Teague, PG'
p159
aS'29'
p160
aS'5-12'
p161
aS'0-1'
p162
aS'3-6'
p163
ag13
ag25
ag25
ag25
ag13
ag13
ag16
ag25
aS'-2'
p164
aS'13'
p165
aa(lp166
a(lp167
S'Tracy McGrady, SF'
p168
ag58
aS'0-1'
p169
aS'0-0'
p170
aS'0-0'
p171
ag13
ag16
ag16
ag14
ag13
ag13
ag16
ag13
aS'+6'
p172
ag13
aa(lp173
S'Vladimir Radmanovic, PF'
p174
aS'26'
p175
aS'1-5'
p176
aS'1-4'
p177
aS'2-2'
p178
ag13
ag16
ag16
ag16
ag25
ag13
ag25
ag16
aS'+6'
p179
ag26
aa(lp180
S'Willie Green, SG'
p181
aS'24'
p182
aS'6-10'
p183
aS'2-4'
p184
aS'0-0'
p185
ag13
ag26
ag26
ag16
ag13
ag13
ag15
ag16
aS'+4'
p186
aS'14'
p187
aa(lp188
S'Jannero Pargo, PG'
p189
aS'19'
p190
aS'6-9'
p191
aS'3-4'
p192
aS'0-0'
p193
ag13
ag14
ag14
ag25
ag16
ag13
ag16
ag16
aS'+7'
p194
aS'15'
p195
aa(lp196
S'Ivan Johnson, F'
p197
ag26
aS'1-1'
p198
aS'0-0'
p199
aS'0-0'
p200
ag13
ag13
ag13
ag13
ag13
ag13
ag13
ag13
aS'+1'
p201
ag25
aa(lp202
S'Jerry Stackhouse, SG'
p203
aS"DNP COACH'S DECISION"
p204
aa(lp205
S'Erick Dampier, C'
p206
aS"DNP COACH'S DECISION"
p207
aa(lp208
S'Jason Collins, C'
p209
aS'DNP SPRAINED LEFT ELBOW'
p210
aa(lp211
a(lp212
g105
aS'31-78'
p213
aS'7-17'
p214
aS'14-20'
p215
aS'11'
p216
aS'36'
p217
aS'47'
p218
aS'19'
p219
ag58
ag15
aS'18'
p220
aS'12'
p221
aS'\xc2\xa0'
p222
aS'83'
p223
aa(lp224
g105
aS'39.7%'
p225
aS'41.2%'
p226
aS'70.0%'
p227
ag105
aa(lp228
S"Fast break points:\xc2\xa0\xc2\xa0\xc2\xa025Points in the paint:\xc2\xa0\xc2\xa0\xc2\xa038Team TO ( points off ):\xc2\xa0\xc2\xa0\xc2\xa018 (23)+/- denotes team's net points while the player is on the court."
p229
aasS'playerlinks'
p230
(dp231
g105
S'None'
p232
sS'J.J. Redick'
p233
S'http://espn.go.com/nba/player/_/id/3024/j.j.-redick'
p234
sS'Dwight Howard'
p235
S'http://espn.go.com/nba/player/_/id/2384/dwight-howard'
p236
sS'Marvin Williams'
p237
S'http://espn.go.com/nba/player/_/id/2797/marvin-williams'
p238
sS'DeAndre Liggins'
p239
S'http://espn.go.com/nba/player/_/id/6453/deandre-liggins'
p240
sS'Jason Collins'
p241
S'http://espn.go.com/nba/player/_/id/987/jason-collins'
p242
sS'Willie Green'
p243
S'http://espn.go.com/nba/player/_/id/2004/willie-green'
p244
sS'Earl Clark'
p245
S'http://espn.go.com/nba/player/_/id/3971/earl-clark'
p246
sS'Jerry Stackhouse'
p247
S'http://espn.go.com/nba/player/_/id/802/jerry-stackhouse'
p248
sS'Chris Duhon'
p249
S'http://espn.go.com/nba/player/_/id/2377/chris-duhon'
p250
sS'Tracy McGrady'
p251
S'http://espn.go.com/nba/player/_/id/532/tracy-mcgrady'
p252
sS'Hedo Turkoglu'
p253
S'http://espn.go.com/nba/player/_/id/862/hedo-turkoglu'
p254
sS'Ryan Anderson'
p255
S'http://espn.go.com/nba/player/_/id/3412/ryan-anderson'
p256
sS'Ivan Johnson'
p257
S'http://espn.go.com/nba/player/_/id/6534/ivan-johnson'
p258
sS'Vladimir Radmanovic'
p259
S'http://espn.go.com/nba/player/_/id/1016/vladimir-radmanovic'
p260
sS'Ishmael Smith'
p261
S'http://espn.go.com/nba/player/_/id/4305/ishmael-smith'
p262
sS'Jannero Pargo'
p263
S'http://espn.go.com/nba/player/_/id/1821/jannero-pargo'
p264
sS'Erick Dampier'
p265
S'http://espn.go.com/nba/player/_/id/181/erick-dampier'
p266
sS'Jeff Teague'
p267
S'http://espn.go.com/nba/player/_/id/4015/jeff-teague'
p268
sS'Kirk Hinrich'
p269
S'http://espn.go.com/nba/player/_/id/1981/kirk-hinrich'
p270
sS'Zaza Pachulia'
p271
S'http://espn.go.com/nba/player/_/id/2016/zaza-pachulia'
p272
sS'Josh Smith'
p273
S'http://espn.go.com/nba/player/_/id/2411/josh-smith'
p274
sS'Jason Richardson'
p275
S'http://espn.go.com/nba/player/_/id/1018/jason-richardson'
p276
sS'Quentin Richardson'
p277
S'http://espn.go.com/nba/player/_/id/703/quentin-richardson'
p278
sS'Von Wafer'
p279
S'http://espn.go.com/nba/player/_/id/2793/von-wafer'
p280
sS'Daniel Orton'
p281
S'http://espn.go.com/nba/player/_/id/4263/daniel-orton'
p282
sS'Glen Davis'
p283
S'http://espn.go.com/nba/player/_/id/3200/glen-davis'
p284
ssS'details'
p285
(lp286
(lp287
S'Orlando Magic'
p288
aa(lp289
S'STARTERS'
p290
aS'MIN'
p291
aS'FGM-A'
p292
aS'3PM-A'
p293
aS'FTM-A'
p294
aS'OREB'
p295
aS'DREB'
p296
aS'REB'
p297
aS'AST'
p298
aS'STL'
p299
aS'BLK'
p300
aS'TO'
p301
aS'PF'
p302
aS'+/-'
p303
aS'PTS'
p304
aa(lp305
a(lp306
a(lp307
a(lp308
a(lp309
a(lp310
S'BENCH'
p311
aS'MIN'
p312
aS'FGM-A'
p313
aS'3PM-A'
p314
aS'FTM-A'
p315
aS'OREB'
p316
aS'DREB'
p317
aS'REB'
p318
aS'AST'
p319
aS'STL'
p320
aS'BLK'
p321
aS'TO'
p322
aS'PF'
p323
aS'+/-'
p324
aS'PTS'
p325
aa(lp326
a(lp327
a(lp328
a(lp329
a(lp330
a(lp331
a(lp332
a(lp333
a(lp334
S'TOTALS'
p335
ag105
aS'FGM-A'
p336
aS'3PM-A'
p337
aS'FTM-A'
p338
aS'OREB\n'
p339
aS'DREB'
p340
aS'REB'
p341
aS'AST'
p342
aS'STL'
p343
aS'BLK'
p344
aS'TO'
p345
aS'PF'
p346
aS'\xc2\xa0'
p347
aS'PTS'
p348
aa(lp349
a(lp350
a(lp351
a(lp352
S'Atlanta Hawks'
p353
aa(lp354
S'STARTERS'
p355
aS'MIN'
p356
aS'FGM-A'
p357
aS'3PM-A'
p358
aS'FTM-A'
p359
aS'OREB'
p360
aS'DREB'
p361
aS'REB'
p362
aS'AST'
p363
aS'STL'
p364
aS'BLK'
p365
aS'TO'
p366
aS'PF'
p367
aS'+/-'
p368
aS'PTS'
p369
aa(lp370
a(lp371
a(lp372
a(lp373
a(lp374
a(lp375
S'BENCH'
p376
aS'MIN'
p377
aS'FGM-A'
p378
aS'3PM-A'
p379
aS'FTM-A'
p380
aS'OREB'
p381
aS'DREB'
p382
aS'REB'
p383
aS'AST'
p384
aS'STL'
p385
aS'BLK'
p386
aS'TO'
p387
aS'PF'
p388
aS'+/-'
p389
aS'PTS'
p390
aa(lp391
a(lp392
a(lp393
a(lp394
a(lp395
a(lp396
a(lp397
a(lp398
a(lp399
S'TOTALS'
p400
ag105
aS'FGM-A'
p401
aS'3PM-A'
p402
aS'FTM-A'
p403
aS'OREB\n'
p404
aS'DREB'
p405
aS'REB'
p406
aS'AST'
p407
aS'STL'
p408
aS'BLK'
p409
aS'TO'
p410
aS'PF'
p411
aS'\xc2\xa0'
p412
aS'PTS'
p413
aa(lp414
a(lp415
a(lp416
assS'320223025'
p417
(dp418
g3
(lp419
(lp420
a(lp421
a(lp422
S'Metta World Peace, SF'
p423
aS'29'
p424
aS'3-6'
p425
aS'3-5'
p426
aS'0-0'
p427
ag16
ag14
ag15
ag26
ag25
ag13
ag13
ag15
aS'-10'
p428
aS'9'
p429
aa(lp430
S'Pau Gasol, PF'
p431
aS'38'
p432
aS'9-14'
p433
aS'0-0'
p434
aS'4-5'
p435
ag25
ag46
ag429
ag14
ag16
ag13
ag15
ag16
aS'-14'
p436
aS'22'
p437
aa(lp438
S'Andrew Bynum, C'
p439
aS'41'
p440
aS'5-15'
p441
aS'0-0'
p442
aS'4-4'
p443
ag25
aS'10'
p444
aS'12'
p445
ag13
ag13
ag25
ag14
ag13
aS'-15'
p446
aS'14'
p447
aa(lp448
S'Kobe Bryant, SG'
p449
aS'40'
p450
aS'7-24'
p451
aS'0-3'
p452
aS'10-11'
p453
ag16
ag26
ag54
ag14
ag16
ag13
ag16
ag14
aS'-13'
p454
aS'24'
p455
aa(lp456
S'Derek Fisher, PG'
p457
aS'26'
p458
aS'2-8'
p459
aS'1-2'
p460
aS'0-0'
p461
ag16
ag13
ag16
ag25
ag13
ag13
ag16
ag16
aS'-5'
p462
ag26
aa(lp463
a(lp464
S'Troy Murphy, PF'
p465
aS'16'
p466
aS'1-2'
p467
aS'0-0'
p468
aS'0-0'
p469
ag16
ag16
ag25
ag16
ag13
ag13
ag13
ag25
ag13
ag25
aa(lp470
S'Matt Barnes, SF'
p471
aS'18'
p472
aS'0-1'
p473
aS'0-0'
p474
aS'0-0'
p475
ag13
ag15
ag15
ag25
ag16
ag13
ag16
ag14
aS'-4'
p476
ag13
aa(lp477
S'Jason Kapono, SF'
p478
ag16
aS'0-0'
p479
aS'0-0'
p480
aS'1-1'
p481
ag13
ag13
ag13
ag13
ag13
ag13
ag13
ag16
aS'-1'
p482
ag16
aa(lp483
S'Steve Blake, PG'
p484
aS'21'
p485
aS'3-5'
p486
aS'0-1'
p487
aS'2-2'
p488
ag13
ag25
ag25
ag13
ag13
ag13
ag16
ag16
aS'-9'
p489
ag58
aa(lp490
S'Josh McRoberts, PF'
p491
ag16
aS'0-0'
p492
aS'0-0'
p493
aS'0-0'
p494
ag13
ag13
ag13
ag13
ag13
ag13
ag13
ag13
aS'-1'
p495
ag13
aa(lp496
S'Andrew Goudelock, G'
p497
ag58
aS'0-3'
p498
aS'0-2'
p499
aS'0-0'
p500
ag13
ag16
ag16
ag13
ag13
ag13
ag13
ag16
aS'-2'
p501
ag13
aa(lp502
S'Darius Morris, G'
p503
ag16
aS'0-0'
p504
aS'0-0'
p505
aS'0-0'
p506
ag13
ag13
ag13
ag13
ag13
ag13
ag16
ag16
aS'-1'
p507
ag13
aa(lp508
S'Luke Walton, SF'
p509
aS"DNP COACH'S DECISION"
p510
aa(lp511
a(lp512
g105
aS'30-78'
p513
aS'4-13'
p514
aS'21-23'
p515
ag58
aS'33'
p516
aS'41'
p517
aS'16'
p518
ag26
ag25
aS'12'
p519
aS'18'
p520
aS'\xc2\xa0'
p521
aS'85'
p522
aa(lp523
g105
aS'38.5%'
p524
aS'30.8%'
p525
aS'91.3%'
p526
ag105
aa(lp527
S"Fast break points:\xc2\xa0\xc2\xa0\xc2\xa06Points in the paint:\xc2\xa0\xc2\xa0\xc2\xa034Team TO ( points off ):\xc2\xa0\xc2\xa0\xc2\xa013 (14)+/- denotes team's net points while the player is on the court."
p528
aa(lp529
a(lp530
a(lp531
S'Kevin Durant, SF'
p532
aS'40'
p533
aS'12-22'
p534
aS'2-8'
p535
aS'7-7'
p536
ag16
ag14
ag15
ag54
ag14
ag16
ag25
ag16
aS'+18'
p537
aS'33'
p538
aa(lp539
S'Serge Ibaka, PF'
p540
aS'33'
p541
aS'5-10'
p542
aS'0-0'
p543
aS'1-2'
p544
ag16
aS'12'
p545
aS'13'
p546
ag13
ag13
ag14
ag13
ag15
aS'+17'
p547
aS'11'
p548
aa(lp549
S'Kendrick Perkins, C'
p550
aS'31'
p551
aS'1-2'
p552
aS'0-0'
p553
aS'1-2'
p554
ag14
ag54
ag429
ag25
ag13
ag25
ag13
ag25
aS'+13'
p555
ag14
aa(lp556
S'Russell Westbrook, PG'
p557
aS'38'
p558
aS'6-17'
p559
aS'2-5'
p560
aS'5-7'
p561
ag13
ag26
ag26
ag54
ag16
ag13
ag14
ag25
aS'+13'
p562
aS'19'
p563
aa(lp564
S'Daequan Cook, SG'
p565
aS'19'
p566
aS'3-8'
p567
aS'2-7'
p568
aS'0-0'
p569
ag16
ag25
ag14
ag13
ag16
ag16
ag13
ag14
aS'+9'
p570
ag58
aa(lp571
a(lp572
S'Nazr Mohammed, C'
p573
aS'14'
p574
aS'0-1'
p575
aS'0-0'
p576
aS'0-0'
p577
ag13
ag14
ag14
ag13
ag16
ag13
ag16
ag25
aS'-3'
p578
ag13
aa(lp579
S'Royal Ivey, PG'
p580
aS'10'
p581
aS'0-1'
p582
aS'0-1'
p583
aS'0-0'
p584
ag13
ag16
ag16
ag13
ag13
ag13
ag13
ag13
aS'+2'
p585
ag13
aa(lp586
S'Ryan Reid, F'
p587
ag16
aS'0-0'
p588
aS'0-0'
p589
aS'0-0'
p590
ag13
ag13
ag13
ag13
ag13
ag13
ag13
ag13
aS'+1'
p591
ag13
aa(lp592
S'Cole Aldrich, C'
p593
aS'10'
p594
aS'1-1'
p595
aS'0-0'
p596
aS'0-0'
p597
ag13
ag16
ag16
ag13
ag13
ag13
ag13
ag16
aS'-5'
p598
ag25
aa(lp599
S'James Harden, G'
p600
aS'32'
p601
aS'6-10'
p602
aS'1-3'
p603
aS'3-3'
p604
ag16
ag14
ag15
ag14
ag16
ag25
ag26
ag14
aS'+10'
p605
aS'16'
p606
aa(lp607
S'Reggie Jackson, G'
p608
aS'10'
p609
aS'2-5'
p610
aS'0-1'
p611
aS'4-4'
p612
ag13
ag16
ag16
ag13
ag13
ag13
ag16
ag25
ag13
ag58
aa(lp613
S'Nick Collison, PF'
p614
aS'DNP LEFT QUAD CONTUSION'
p615
aa(lp616
S'Lazar Hayward, F'
p617
aS'DNP ORBITAL FLOOR FRACTURE'
p618
aa(lp619
a(lp620
g105
aS'36-77'
p621
aS'7-25'
p622
aS'21-25'
p623
ag46
aS'37'
p624
aS'44'
p625
aS'17'
p626
ag46
ag429
aS'12'
p627
aS'20'
p628
aS'\xc2\xa0'
p629
aS'100'
p630
aa(lp631
g105
aS'46.8%'
p632
aS'28.0%'
p633
aS'84.0%'
p634
ag105
aa(lp635
S"Fast break points:\xc2\xa0\xc2\xa0\xc2\xa021Points in the paint:\xc2\xa0\xc2\xa0\xc2\xa038Team TO ( points off ):\xc2\xa0\xc2\xa0\xc2\xa012 (14)+/- denotes team's net points while the player is on the court."
p636
aasg230
(dp637
g105
S'None'
p638
sS'Derek Fisher'
p639
S'http://espn.go.com/nba/player/_/id/246/derek-fisher'
p640
sS'Metta World Peace'
p641
S'http://espn.go.com/nba/player/_/id/25/metta-world-peace'
p642
sS'Pau Gasol'
p643
S'http://espn.go.com/nba/player/_/id/996/pau-gasol'
p644
sS'Jason Kapono'
p645
S'http://espn.go.com/nba/player/_/id/2010/jason-kapono'
p646
sS'Matt Barnes'
p647
S'http://espn.go.com/nba/player/_/id/1765/matt-barnes'
p648
sS'Josh McRoberts'
p649
S'http://espn.go.com/nba/player/_/id/3220/josh-mcroberts'
p650
sS'Royal Ivey'
p651
S'http://espn.go.com/nba/player/_/id/2387/royal-ivey'
p652
sS'Ryan Reid'
p653
S'http://espn.go.com/nba/player/_/id/4286/ryan-reid'
p654
sS'Cole Aldrich'
p655
S'http://espn.go.com/nba/player/_/id/4267/cole-aldrich'
p656
sS'Kobe Bryant'
p657
S'http://espn.go.com/nba/player/_/id/110/kobe-bryant'
p658
sS'Nazr Mohammed'
p659
S'http://espn.go.com/nba/player/_/id/568/nazr-mohammed'
p660
sS'James Harden'
p661
S'http://espn.go.com/nba/player/_/id/3992/james-harden'
p662
sS'Troy Murphy'
p663
S'http://espn.go.com/nba/player/_/id/1013/troy-murphy'
p664
sS'Kevin Durant'
p665
S'http://espn.go.com/nba/player/_/id/3202/kevin-durant'
p666
sS'Luke Walton'
p667
S'http://espn.go.com/nba/player/_/id/2027/luke-walton'
p668
sS'Steve Blake'
p669
S'http://espn.go.com/nba/player/_/id/1994/steve-blake'
p670
sS'Reggie Jackson'
p671
S'http://espn.go.com/nba/player/_/id/6443/reggie-jackson'
p672
sS'Serge Ibaka'
p673
S'http://espn.go.com/nba/player/_/id/3439/serge-ibaka'
p674
sS'Lazar Hayward'
p675
S'http://espn.go.com/nba/player/_/id/4277/lazar-hayward'
p676
sS'Kendrick Perkins'
p677
S'http://espn.go.com/nba/player/_/id/2018/kendrick-perkins'
p678
sS'Andrew Goudelock'
p679
S'http://espn.go.com/nba/player/_/id/6435/andrew-goudelock'
p680
sS'Andrew Bynum'
p681
S'http://espn.go.com/nba/player/_/id/2748/andrew-bynum'
p682
sS'Darius Morris'
p683
S'http://espn.go.com/nba/player/_/id/6463/darius-morris'
p684
sS'Russell Westbrook'
p685
S'http://espn.go.com/nba/player/_/id/3468/russell-westbrook'
p686
sS'Daequan Cook'
p687
S'http://espn.go.com/nba/player/_/id/3196/daequan-cook'
p688
sS'Nick Collison'
p689
S'http://espn.go.com/nba/player/_/id/1978/nick-collison'
p690
ssg285
(lp691
(lp692
S'Los Angeles Lakers'
p693
aa(lp694
S'STARTERS'
p695
aS'MIN'
p696
aS'FGM-A'
p697
aS'3PM-A'
p698
aS'FTM-A'
p699
aS'OREB'
p700
aS'DREB'
p701
aS'REB'
p702
aS'AST'
p703
aS'STL'
p704
aS'BLK'
p705
aS'TO'
p706
aS'PF'
p707
aS'+/-'
p708
aS'PTS'
p709
aa(lp710
a(lp711
a(lp712
a(lp713
a(lp714
a(lp715
S'BENCH'
p716
aS'MIN'
p717
aS'FGM-A'
p718
aS'3PM-A'
p719
aS'FTM-A'
p720
aS'OREB'
p721
aS'DREB'
p722
aS'REB'
p723
aS'AST'
p724
aS'STL'
p725
aS'BLK'
p726
aS'TO'
p727
aS'PF'
p728
aS'+/-'
p729
aS'PTS'
p730
aa(lp731
a(lp732
a(lp733
a(lp734
a(lp735
a(lp736
a(lp737
a(lp738
a(lp739
S'TOTALS'
p740
ag105
aS'FGM-A'
p741
aS'3PM-A'
p742
aS'FTM-A'
p743
aS'OREB\n'
p744
aS'DREB'
p745
aS'REB'
p746
aS'AST'
p747
aS'STL'
p748
aS'BLK'
p749
aS'TO'
p750
aS'PF'
p751
aS'\xc2\xa0'
p752
aS'PTS'
p753
aa(lp754
a(lp755
a(lp756
a(lp757
S'Oklahoma City Thunder'
p758
aa(lp759
S'STARTERS'
p760
aS'MIN'
p761
aS'FGM-A'
p762
aS'3PM-A'
p763
aS'FTM-A'
p764
aS'OREB'
p765
aS'DREB'
p766
aS'REB'
p767
aS'AST'
p768
aS'STL'
p769
aS'BLK'
p770
aS'TO'
p771
aS'PF'
p772
aS'+/-'
p773
aS'PTS'
p774
aa(lp775
a(lp776
a(lp777
a(lp778
a(lp779
a(lp780
S'BENCH'
p781
aS'MIN'
p782
aS'FGM-A'
p783
aS'3PM-A'
p784
aS'FTM-A'
p785
aS'OREB'
p786
aS'DREB'
p787
aS'REB'
p788
aS'AST'
p789
aS'STL'
p790
aS'BLK'
p791
aS'TO'
p792
aS'PF'
p793
aS'+/-'
p794
aS'PTS'
p795
aa(lp796
a(lp797
a(lp798
a(lp799
a(lp800
a(lp801
a(lp802
a(lp803
a(lp804
S'TOTALS'
p805
ag105
aS'FGM-A'
p806
aS'3PM-A'
p807
aS'FTM-A'
p808
aS'OREB\n'
p809
aS'DREB'
p810
aS'REB'
p811
aS'AST'
p812
aS'STL'
p813
aS'BLK'
p814
aS'TO'
p815
aS'PF'
p816
aS'\xc2\xa0'
p817
aS'PTS'
p818
aa(lp819
a(lp820
a(lp821
assS'320223007'
p822
(dp823
g3
(lp824
(lp825
a(lp826
a(lp827
S'Tim Duncan, C'
p828
aS'29'
p829
aS'6-13'
p830
aS'0-0'
p831
aS'6-9'
p832
ag25
ag46
ag429
ag14
ag13
ag14
ag25
ag14
aS'+18'
p833
aS'18'
p834
aa(lp835
S'Richard Jefferson, SF'
p836
aS'35'
p837
aS'5-8'
p838
aS'5-7'
p839
aS'2-2'
p840
ag13
ag58
ag58
ag16
ag16
ag13
ag13
ag14
aS'+10'
p841
aS'17'
p842
aa(lp843
S'DeJuan Blair, F'
p844
aS'35'
p845
aS'12-21'
p846
aS'0-0'
p847
aS'4-4'
p848
ag15
ag58
aS'12'
p849
ag14
ag25
ag16
ag13
ag14
aS'+3'
p850
aS'28'
p851
aa(lp852
S'Tony Parker, PG'
p853
aS'35'
p854
aS'5-11'
p855
aS'2-3'
p856
aS'4-4'
p857
ag13
ag16
ag16
aS'12'
p858
ag16
ag13
ag15
ag25
aS'+12'
p859
aS'16'
p860
aa(lp861
S'Daniel Green, G'
p862
aS'38'
p863
aS'6-12'
p864
aS'1-5'
p865
aS'3-4'
p866
ag25
ag15
ag54
ag25
ag14
ag13
ag25
ag25
aS'+20'
p867
aS'16'
p868
aa(lp869
a(lp870
S'Matt Bonner, PF'
p871
aS'25'
p872
aS'4-8'
p873
aS'4-8'
p874
aS'0-0'
p875
ag13
ag25
ag25
ag25
ag13
ag13
ag13
ag13
aS'+3'
p876
aS'12'
p877
aa(lp878
S'Gary Neal, PG'
p879
aS'17'
p880
aS'1-7'
p881
aS'1-3'
p882
aS'0-0'
p883
ag16
ag25
ag14
ag15
ag13
ag13
ag13
ag16
aS'+5'
p884
ag14
aa(lp885
S'James Anderson, SG'
p886
aS'19'
p887
aS'0-4'
p888
aS'0-1'
p889
aS'0-0'
p890
ag16
ag16
ag25
ag16
ag13
ag13
ag13
ag25
aS'-1'
p891
ag13
aa(lp892
S'Eric Dawson, F'
p893
ag25
aS'0-0'
p894
aS'0-0'
p895
aS'0-0'
p896
ag13
ag16
ag16
ag13
ag13
ag13
ag13
ag13
ag13
ag13
aa(lp897
S'Kawhi Leonard, SF'
p898
ag25
aS'1-1'
p899
aS'0-0'
p900
aS'0-0'
p901
ag13
ag16
ag16
ag13
ag13
ag13
ag13
ag13
aS'+7'
p902
ag25
aa(lp903
S'Cory Joseph, G'
p904
ag14
aS'1-1'
p905
aS'0-0'
p906
aS'0-0'
p907
ag13
ag13
ag13
ag16
ag13
ag13
ag13
ag25
aS'-2'
p908
ag25
aa(lp909
a(lp910
g105
aS'41-86'
p911
aS'13-27'
p912
aS'19-23'
p913
aS'10'
p914
aS'35'
p915
aS'45'
p916
aS'29'
p917
ag46
ag15
ag58
aS'18'
p918
aS'\xc2\xa0'
p919
aS'114'
p920
aa(lp921
g105
aS'47.7%'
p922
aS'48.1%'
p923
aS'82.6%'
p924
ag105
aa(lp925
S"Fast break points:\xc2\xa0\xc2\xa0\xc2\xa011Points in the paint:\xc2\xa0\xc2\xa0\xc2\xa040Team TO ( points off ):\xc2\xa0\xc2\xa0\xc2\xa08 (11)+/- denotes team's net points while the player is on the court."
p926
aa(lp927
a(lp928
a(lp929
S'Corey Brewer, SF'
p930
aS'29'
p931
aS'9-17'
p932
aS'2-5'
p933
aS'3-4'
p934
ag13
ag16
ag16
ag16
ag13
ag13
ag16
ag13
aS'-18'
p935
aS'23'
p936
aa(lp937
S'Kenneth Faried, F'
p938
aS'22'
p939
aS'2-5'
p940
aS'0-0'
p941
aS'0-0'
p942
ag16
ag15
ag26
ag14
ag13
ag13
ag25
ag25
aS'-18'
p943
ag15
aa(lp944
S'Timofey Mozgov, C'
p945
aS'20'
p946
aS'3-5'
p947
aS'0-0'
p948
aS'2-2'
p949
ag16
ag25
ag14
ag13
ag13
ag16
ag16
ag14
aS'-1'
p950
ag58
aa(lp951
S'Andre Miller, PG'
p952
aS'27'
p953
aS'7-10'
p954
aS'1-1'
p955
aS'5-6'
p956
ag16
ag13
ag16
ag46
ag16
ag13
ag25
ag15
aS'-17'
p957
aS'20'
p958
aa(lp959
S'Arron Afflalo, SG'
p960
aS'39'
p961
aS'6-16'
p962
aS'3-5'
p963
aS'4-5'
p964
ag16
ag14
ag15
ag16
ag16
ag13
ag13
ag25
aS'-8'
p965
aS'19'
p966
aa(lp967
a(lp968
S'Al Harrington, PF'
p969
aS'26'
p970
aS'4-10'
p971
aS'0-0'
p972
aS'0-0'
p973
ag25
ag46
ag429
ag14
ag13
ag13
ag25
ag16
aS'+3'
p974
ag58
aa(lp975
S'Chris Andersen, C'
p976
ag429
aS'0-1'
p977
aS'0-0'
p978
aS'0-0'
p979
ag13
ag25
ag25
ag13
ag13
ag25
ag13
ag16
aS'-12'
p980
ag13
aa(lp981
S'Kosta Koufos, C'
p982
aS'19'
p983
aS'4-6'
p984
aS'0-0'
p985
aS'0-0'
p986
ag14
ag14
ag54
ag16
ag16
ag13
ag16
ag25
aS'-2'
p987
ag58
aa(lp988
S'Julyan Stone, G'
p989
aS'21'
p990
aS'2-6'
p991
aS'1-3'
p992
aS'4-4'
p993
ag13
ag16
ag16
ag46
ag25
ag13
ag13
ag16
aS'+2'
p994
ag429
aa(lp995
S'Jordan Hamilton, G'
p996
aS'27'
p997
aS'0-7'
p998
aS'0-5'
p999
aS'0-0'
p1000
ag13
ag429
ag429
ag25
ag13
ag16
ag25
ag25
aS'-4'
p1001
ag13
aa(lp1002
S'Rudy Fernandez, SG'
p1003
aS'DNP LOWER BACK STRAIN'
p1004
aa(lp1005
S'Ty Lawson, PG'
p1006
aS'DNP LEFT ANKLE SPRAIN'
p1007
aa(lp1008
S'Danilo Gallinari, SF'
p1009
aS'DNP LEFT ANKLE SPRAIN'
p1010
aa(lp1011
a(lp1012
g105
aS'37-83'
p1013
aS'7-19'
p1014
aS'18-21'
p1015
ag429
aS'32'
p1016
aS'41'
p1017
aS'25'
p1018
ag26
ag15
aS'11'
p1019
aS'18'
p1020
aS'\xc2\xa0'
p1021
aS'99'
p1022
aa(lp1023
g105
aS'44.6%'
p1024
aS'36.8%'
p1025
aS'85.7%'
p1026
ag105
aa(lp1027
S"Fast break points:\xc2\xa0\xc2\xa0\xc2\xa018Points in the paint:\xc2\xa0\xc2\xa0\xc2\xa042Team TO ( points off ):\xc2\xa0\xc2\xa0\xc2\xa011 (14)+/- denotes team's net points while the player is on the court."
p1028
aasg230
(dp1029
g105
S'None'
p1030
sS'Tim Duncan'
p1031
S'http://espn.go.com/nba/player/_/id/215/tim-duncan'
p1032
sS'Kenneth Faried'
p1033
S'http://espn.go.com/nba/player/_/id/6433/kenneth-faried'
p1034
sS'Andre Miller'
p1035
S'http://espn.go.com/nba/player/_/id/557/andre-miller'
p1036
sS'Tony Parker'
p1037
S'http://espn.go.com/nba/player/_/id/1015/tony-parker'
p1038
sS'Gary Neal'
p1039
S'http://espn.go.com/nba/player/_/id/4300/gary-neal'
p1040
sS'Julyan Stone'
p1041
S'http://espn.go.com/nba/player/_/id/6543/julyan-stone'
p1042
sS'Timofey Mozgov'
p1043
S'http://espn.go.com/nba/player/_/id/4298/timofey-mozgov'
p1044
sS'DeJuan Blair'
p1045
S'http://espn.go.com/nba/player/_/id/3965/dejuan-blair'
p1046
sS'Chris Andersen'
p1047
S'http://espn.go.com/nba/player/_/id/1135/chris-andersen'
p1048
sS'Ty Lawson'
p1049
S'http://espn.go.com/nba/player/_/id/4000/ty-lawson'
p1050
sS'Danilo Gallinari'
p1051
S'http://espn.go.com/nba/player/_/id/3428/danilo-gallinari'
p1052
sS'Al Harrington'
p1053
S'http://espn.go.com/nba/player/_/id/308/al-harrington'
p1054
sS'Jordan Hamilton'
p1055
S'http://espn.go.com/nba/player/_/id/6436/jordan-hamilton'
p1056
sS'James Anderson'
p1057
S'http://espn.go.com/nba/player/_/id/4242/james-anderson'
p1058
sS'Corey Brewer'
p1059
S'http://espn.go.com/nba/player/_/id/3191/corey-brewer'
p1060
sS'Arron Afflalo'
p1061
S'http://espn.go.com/nba/player/_/id/3187/arron-afflalo'
p1062
sS'Kosta Koufos'
p1063
S'http://espn.go.com/nba/player/_/id/3444/kosta-koufos'
p1064
sS'Matt Bonner'
p1065
S'http://espn.go.com/nba/player/_/id/1996/matt-bonner'
p1066
sS'Richard Jefferson'
p1067
S'http://espn.go.com/nba/player/_/id/1006/richard-jefferson'
p1068
sS'Daniel Green'
p1069
S'http://espn.go.com/nba/player/_/id/3988/daniel-green'
p1070
sS'Rudy Fernandez'
p1071
S'http://espn.go.com/nba/player/_/id/3204/rudy-fernandez'
p1072
sS'Eric Dawson'
p1073
S'http://espn.go.com/nba/player/_/id/6555/eric-dawson'
p1074
sS'Cory Joseph'
p1075
S'http://espn.go.com/nba/player/_/id/6446/cory-joseph'
p1076
sS'Kawhi Leonard'
p1077
S'http://espn.go.com/nba/player/_/id/6450/kawhi-leonard'
p1078
ssg285
(lp1079
(lp1080
S'San Antonio Spurs'
p1081
aa(lp1082
S'STARTERS'
p1083
aS'MIN'
p1084
aS'FGM-A'
p1085
aS'3PM-A'
p1086
aS'FTM-A'
p1087
aS'OREB'
p1088
aS'DREB'
p1089
aS'REB'
p1090
aS'AST'
p1091
aS'STL'
p1092
aS'BLK'
p1093
aS'TO'
p1094
aS'PF'
p1095
aS'+/-'
p1096
aS'PTS'
p1097
aa(lp1098
a(lp1099
a(lp1100
a(lp1101
a(lp1102
a(lp1103
S'BENCH'
p1104
aS'MIN'
p1105
aS'FGM-A'
p1106
aS'3PM-A'
p1107
aS'FTM-A'
p1108
aS'OREB'
p1109
aS'DREB'
p1110
aS'REB'
p1111
aS'AST'
p1112
aS'STL'
p1113
aS'BLK'
p1114
aS'TO'
p1115
aS'PF'
p1116
aS'+/-'
p1117
aS'PTS'
p1118
aa(lp1119
a(lp1120
a(lp1121
a(lp1122
a(lp1123
a(lp1124
a(lp1125
S'TOTALS'
p1126
ag105
aS'FGM-A'
p1127
aS'3PM-A'
p1128
aS'FTM-A'
p1129
aS'OREB\n'
p1130
aS'DREB'
p1131
aS'REB'
p1132
aS'AST'
p1133
aS'STL'
p1134
aS'BLK'
p1135
aS'TO'
p1136
aS'PF'
p1137
aS'\xc2\xa0'
p1138
aS'PTS'
p1139
aa(lp1140
a(lp1141
a(lp1142
a(lp1143
S'Denver Nuggets'
p1144
aa(lp1145
S'STARTERS'
p1146
aS'MIN'
p1147
aS'FGM-A'
p1148
aS'3PM-A'
p1149
aS'FTM-A'
p1150
aS'OREB'
p1151
aS'DREB'
p1152
aS'REB'
p1153
aS'AST'
p1154
aS'STL'
p1155
aS'BLK'
p1156
aS'TO'
p1157
aS'PF'
p1158
aS'+/-'
p1159
aS'PTS'
p1160
aa(lp1161
a(lp1162
a(lp1163
a(lp1164
a(lp1165
a(lp1166
S'BENCH'
p1167
aS'MIN'
p1168
aS'FGM-A'
p1169
aS'3PM-A'
p1170
aS'FTM-A'
p1171
aS'OREB'
p1172
aS'DREB'
p1173
aS'REB'
p1174
aS'AST'
p1175
aS'STL'
p1176
aS'BLK'
p1177
aS'TO'
p1178
aS'PF'
p1179
aS'+/-'
p1180
aS'PTS'
p1181
aa(lp1182
a(lp1183
a(lp1184
a(lp1185
a(lp1186
a(lp1187
a(lp1188
a(lp1189
a(lp1190
S'TOTALS'
p1191
ag105
aS'FGM-A'
p1192
aS'3PM-A'
p1193
aS'FTM-A'
p1194
aS'OREB\n'
p1195
aS'DREB'
p1196
aS'REB'
p1197
aS'AST'
p1198
aS'STL'
p1199
aS'BLK'
p1200
aS'TO'
p1201
aS'PF'
p1202
aS'\xc2\xa0'
p1203
aS'PTS'
p1204
aa(lp1205
a(lp1206
a(lp1207
assS'320223014'
p1208
(dp1209
g3
(lp1210
(lp1211
a(lp1212
a(lp1213
S'Carmelo Anthony, SF'
p1214
aS'35'
p1215
aS'7-20'
p1216
aS'1-1'
p1217
aS'4-4'
p1218
ag14
ag15
ag46
ag16
ag13
ag16
ag16
ag15
aS'-15'
p1219
aS'19'
p1220
aa(lp1221
S'Amare Stoudemire, PF'
p1222
aS'30'
p1223
aS'4-7'
p1224
aS'0-0'
p1225
aS'5-6'
p1226
ag16
ag15
ag26
ag16
ag16
ag16
ag54
ag25
aS'-14'
p1227
aS'13'
p1228
aa(lp1229
S'Tyson Chandler, C'
p1230
aS'36'
p1231
aS'4-7'
p1232
aS'0-0'
p1233
aS'2-2'
p1234
ag14
ag54
ag429
ag13
ag16
ag13
ag13
ag16
aS'-21'
p1235
aS'10'
p1236
aa(lp1237
S'Landry Fields, G'
p1238
aS'27'
p1239
aS'4-9'
p1240
aS'0-0'
p1241
aS'0-0'
p1242
ag14
ag14
ag54
ag16
ag16
ag13
ag16
ag16
aS'-6'
p1243
ag58
aa(lp1244
S'Jeremy Lin, PG'
p1245
aS'34'
p1246
aS'1-11'
p1247
aS'0-2'
p1248
aS'6-6'
p1249
ag16
ag26
ag54
ag14
ag14
ag13
ag58
ag16
aS'-19'
p1250
ag58
aa(lp1251
a(lp1252
S'Baron Davis, PG'
p1253
aS'14'
p1254
aS'0-7'
p1255
aS'0-4'
p1256
aS'0-0'
p1257
ag13
ag13
ag13
ag14
ag13
ag16
ag16
ag13
aS'+5'
p1258
ag13
aa(lp1259
S'Jared Jeffries, PF'
p1260
aS'17'
p1261
aS'2-2'
p1262
aS'0-0'
p1263
aS'0-0'
p1264
ag25
ag14
ag26
ag25
ag13
ag13
ag13
ag15
aS'+5'
p1265
ag15
aa(lp1266
S'Steve Novak, SF'
p1267
aS'19'
p1268
aS'4-5'
p1269
aS'4-5'
p1270
aS'0-0'
p1271
ag13
ag13
ag13
ag13
ag13
ag13
ag25
ag13
aS'+2'
p1272
aS'12'
p1273
aa(lp1274
S'J.R. Smith, SG'
p1275
aS'29'
p1276
aS'5-11'
p1277
aS'2-5'
p1278
aS'2-4'
p1279
ag16
ag25
ag14
ag14
ag14
ag13
ag13
ag25
aS'-7'
p1280
aS'14'
p1281
aa(lp1282
S'Mike Bibby, PG'
p1283
aS"DNP COACH'S DECISION"
p1284
aa(lp1285
S'Toney Douglas, PG'
p1286
aS"DNP COACH'S DECISION"
p1287
aa(lp1288
S'Jerome Jordan, C'
p1289
aS"DNP COACH'S DECISION"
p1290
aa(lp1291
a(lp1292
g105
aS'31-79'
p1293
aS'7-17'
p1294
aS'19-22'
p1295
aS'14'
p1296
aS'27'
p1297
aS'41'
p1298
aS'14'
p1299
ag429
ag14
aS'19'
p1300
aS'15'
p1301
aS'\xc2\xa0'
p1302
aS'88'
p1303
aa(lp1304
g105
aS'39.2%'
p1305
aS'41.2%'
p1306
aS'86.4%'
p1307
ag105
aa(lp1308
S"Fast break points:\xc2\xa0\xc2\xa0\xc2\xa05Points in the paint:\xc2\xa0\xc2\xa0\xc2\xa032Team TO ( points off ):\xc2\xa0\xc2\xa0\xc2\xa019 (16)+/- denotes team's net points while the player is on the court."
p1309
aa(lp1310
a(lp1311
a(lp1312
S'Chris Bosh, PF'
p1313
aS'32'
p1314
aS'11-17'
p1315
aS'0-0'
p1316
aS'3-4'
p1317
ag25
ag54
ag58
ag13
ag16
ag16
ag16
ag14
aS'+9'
p1318
aS'25'
p1319
aa(lp1320
S'LeBron James, SF'
p1321
aS'41'
p1322
aS'7-16'
p1323
aS'0-0'
p1324
aS'6-6'
p1325
ag16
ag58
ag429
ag58
ag26
ag25
ag15
ag14
aS'+12'
p1326
aS'20'
p1327
aa(lp1328
S'Joel Anthony, C'
p1329
aS'24'
p1330
aS'0-1'
p1331
aS'0-0'
p1332
aS'0-0'
p1333
ag25
ag15
ag54
ag13
ag13
ag26
ag16
ag14
aS'+18'
p1334
ag13
aa(lp1335
S'Dwyane Wade, SG'
p1336
aS'35'
p1337
aS'10-22'
p1338
aS'0-1'
p1339
aS'2-3'
p1340
ag14
ag25
ag26
ag26
ag25
ag13
ag25
ag14
aS'+24'
p1341
aS'22'
p1342
aa(lp1343
S'Mario Chalmers, PG'
p1344
aS'25'
p1345
aS'3-7'
p1346
aS'1-5'
p1347
aS'1-2'
p1348
ag13
ag25
ag25
ag14
ag25
ag13
ag14
ag15
aS'+17'
p1349
ag58
aa(lp1350
a(lp1351
S'Mike Miller, SG'
p1352
aS'11'
p1353
aS'1-2'
p1354
aS'1-2'
p1355
aS'0-0'
p1356
ag13
ag16
ag16
ag13
ag13
ag13
ag13
ag16
aS'-13'
p1357
ag14
aa(lp1358
S'Shane Battier, SF'
p1359
aS'24'
p1360
aS'3-6'
p1361
aS'2-4'
p1362
aS'0-0'
p1363
ag14
ag16
ag15
ag16
ag16
ag16
ag16
ag25
aS'+5'
p1364
ag58
aa(lp1365
S'Udonis Haslem, PF'
p1366
aS'25'
p1367
aS'3-5'
p1368
aS'0-0'
p1369
aS'0-0'
p1370
ag16
ag58
ag429
ag13
ag13
ag16
ag16
ag25
aS'+1'
p1371
ag54
aa(lp1372
S'Norris Cole, PG'
p1373
aS'23'
p1374
aS'4-9'
p1375
aS'0-2'
p1376
aS'2-4'
p1377
ag25
ag13
ag25
ag25
ag16
ag13
ag14
ag16
aS'-3'
p1378
aS'10'
p1379
aa(lp1380
S'Juwan Howard, PF'
p1381
aS"DNP COACH'S DECISION"
p1382
aa(lp1383
S'Eddy Curry, C'
p1384
aS"DNP COACH'S DECISION"
p1385
aa(lp1386
S'James Jones, SF'
p1387
aS"DNP COACH'S DECISION"
p1388
aa(lp1389
S'Dexter Pittman, C'
p1390
aS"DNP COACH'S DECISION"
p1391
aa(lp1392
a(lp1393
g105
aS'42-85'
p1394
aS'4-14'
p1395
aS'14-19'
p1396
aS'14'
p1397
aS'32'
p1398
aS'46'
p1399
aS'19'
p1400
aS'12'
p1401
aS'10'
p1402
aS'16'
p1403
aS'22'
p1404
aS'\xc2\xa0'
p1405
aS'102'
p1406
aa(lp1407
g105
aS'49.4%'
p1408
aS'28.6%'
p1409
aS'73.7%'
p1410
ag105
aa(lp1411
S"Fast break points:\xc2\xa0\xc2\xa0\xc2\xa019Points in the paint:\xc2\xa0\xc2\xa0\xc2\xa048Team TO ( points off ):\xc2\xa0\xc2\xa0\xc2\xa016 (11)+/- denotes team's net points while the player is on the court."
p1412
aasg230
(dp1413
g105
S'None'
p1414
sS'Dwyane Wade'
p1415
S'http://espn.go.com/nba/player/_/id/1987/dwyane-wade'
p1416
sS'LeBron James'
p1417
S'http://espn.go.com/nba/player/_/id/1966/lebron-james'
p1418
sS'Mike Miller'
p1419
S'http://espn.go.com/nba/player/_/id/558/mike-miller'
p1420
sS'Juwan Howard'
p1421
S'http://espn.go.com/nba/player/_/id/351/juwan-howard'
p1422
sS'Landry Fields'
p1423
S'http://espn.go.com/nba/player/_/id/4274/landry-fields'
p1424
sS'Eddy Curry'
p1425
S'http://espn.go.com/nba/player/_/id/990/eddy-curry'
p1426
sS'Dexter Pittman'
p1427
S'http://espn.go.com/nba/player/_/id/4283/dexter-pittman'
p1428
sS'Joel Anthony'
p1429
S'http://espn.go.com/nba/player/_/id/3247/joel-anthony'
p1430
sS'Chris Bosh'
p1431
S'http://espn.go.com/nba/player/_/id/1977/chris-bosh'
p1432
sS'Baron Davis'
p1433
S'http://espn.go.com/nba/player/_/id/194/baron-davis'
p1434
sS'Udonis Haslem'
p1435
S'http://espn.go.com/nba/player/_/id/2184/udonis-haslem'
p1436
sS'J.R. Smith'
p1437
S'http://espn.go.com/nba/player/_/id/2444/j.r.-smith'
p1438
sS'Amare Stoudemire'
p1439
S'http://espn.go.com/nba/player/_/id/1727/amare-stoudemire'
p1440
sS'Jared Jeffries'
p1441
S'http://espn.go.com/nba/player/_/id/1717/jared-jeffries'
p1442
sS'Jerome Jordan'
p1443
S'http://espn.go.com/nba/player/_/id/4280/jerome-jordan'
p1444
sS'Shane Battier'
p1445
S'http://espn.go.com/nba/player/_/id/976/shane-battier'
p1446
sS'Mario Chalmers'
p1447
S'http://espn.go.com/nba/player/_/id/3419/mario-chalmers'
p1448
sS'Mike Bibby'
p1449
S'http://espn.go.com/nba/player/_/id/61/mike-bibby'
p1450
sS'Tyson Chandler'
p1451
S'http://espn.go.com/nba/player/_/id/984/tyson-chandler'
p1452
sS'Carmelo Anthony'
p1453
S'http://espn.go.com/nba/player/_/id/1975/carmelo-anthony'
p1454
sS'Toney Douglas'
p1455
S'http://espn.go.com/nba/player/_/id/3979/toney-douglas'
p1456
sS'Jeremy Lin'
p1457
S'http://espn.go.com/nba/player/_/id/4299/jeremy-lin'
p1458
sS'James Jones'
p1459
S'http://espn.go.com/nba/player/_/id/2009/james-jones'
p1460
sS'Norris Cole'
p1461
S'http://espn.go.com/nba/player/_/id/6431/norris-cole'
p1462
sS'Steve Novak'
p1463
S'http://espn.go.com/nba/player/_/id/3018/steve-novak'
p1464
ssg285
(lp1465
(lp1466
S'New York Knicks'
p1467
aa(lp1468
S'STARTERS'
p1469
aS'MIN'
p1470
aS'FGM-A'
p1471
aS'3PM-A'
p1472
aS'FTM-A'
p1473
aS'OREB'
p1474
aS'DREB'
p1475
aS'REB'
p1476
aS'AST'
p1477
aS'STL'
p1478
aS'BLK'
p1479
aS'TO'
p1480
aS'PF'
p1481
aS'+/-'
p1482
aS'PTS'
p1483
aa(lp1484
a(lp1485
a(lp1486
a(lp1487
a(lp1488
a(lp1489
S'BENCH'
p1490
aS'MIN'
p1491
aS'FGM-A'
p1492
aS'3PM-A'
p1493
aS'FTM-A'
p1494
aS'OREB'
p1495
aS'DREB'
p1496
aS'REB'
p1497
aS'AST'
p1498
aS'STL'
p1499
aS'BLK'
p1500
aS'TO'
p1501
aS'PF'
p1502
aS'+/-'
p1503
aS'PTS'
p1504
aa(lp1505
a(lp1506
a(lp1507
a(lp1508
a(lp1509
a(lp1510
a(lp1511
a(lp1512
S'TOTALS'
p1513
ag105
aS'FGM-A'
p1514
aS'3PM-A'
p1515
aS'FTM-A'
p1516
aS'OREB\n'
p1517
aS'DREB'
p1518
aS'REB'
p1519
aS'AST'
p1520
aS'STL'
p1521
aS'BLK'
p1522
aS'TO'
p1523
aS'PF'
p1524
aS'\xc2\xa0'
p1525
aS'PTS'
p1526
aa(lp1527
a(lp1528
a(lp1529
a(lp1530
S'Miami Heat'
p1531
aa(lp1532
S'STARTERS'
p1533
aS'MIN'
p1534
aS'FGM-A'
p1535
aS'3PM-A'
p1536
aS'FTM-A'
p1537
aS'OREB'
p1538
aS'DREB'
p1539
aS'REB'
p1540
aS'AST'
p1541
aS'STL'
p1542
aS'BLK'
p1543
aS'TO'
p1544
aS'PF'
p1545
aS'+/-'
p1546
aS'PTS'
p1547
aa(lp1548
a(lp1549
a(lp1550
a(lp1551
a(lp1552
a(lp1553
S'BENCH'
p1554
aS'MIN'
p1555
aS'FGM-A'
p1556
aS'3PM-A'
p1557
aS'FTM-A'
p1558
aS'OREB'
p1559
aS'DREB'
p1560
aS'REB'
p1561
aS'AST'
p1562
aS'STL'
p1563
aS'BLK'
p1564
aS'TO'
p1565
aS'PF'
p1566
aS'+/-'
p1567
aS'PTS'
p1568
aa(lp1569
a(lp1570
a(lp1571
a(lp1572
a(lp1573
a(lp1574
a(lp1575
a(lp1576
a(lp1577
S'TOTALS'
p1578
ag105
aS'FGM-A'
p1579
aS'3PM-A'
p1580
aS'FTM-A'
p1581
aS'OREB\n'
p1582
aS'DREB'
p1583
aS'REB'
p1584
aS'AST'
p1585
aS'STL'
p1586
aS'BLK'
p1587
aS'TO'
p1588
aS'PF'
p1589
aS'\xc2\xa0'
p1590
aS'PTS'
p1591
aa(lp1592
a(lp1593
a(lp1594
ass.