(dp0
S'320223001'
p1
(dp2
S'content'
p3
(lp4
(lp5
S'12:00'
p6
aS'Start of the 1st Quarter'
p7
aa(lp8
S'12:00'
p9
aS'\xc2\xa0'
p10
aS'0-0'
p11
aS'Jumpball: Dwight Howard vs. Josh Smith (Zaza Pachulia gains possession)'
p12
aa(lp13
S'11:40'
p14
aS'\xc2\xa0'
p15
aS'0-0'
p16
aS'Josh Smith misses 17-foot two point shot'
p17
aa(lp18
S'11:37'
p19
aS'Jason Richardson defensive rebound'
p20
aS'0-0'
p21
aS'\xc2\xa0'
p22
aa(lp23
S'11:33'
p24
aS'Dwight Howard makes dunk (Jason Richardson assists)'
p25
aS'2-0'
p26
aS'\xc2\xa0'
p27
aa(lp28
S'11:07'
p29
aS'\xc2\xa0'
p30
aS'2-0'
p31
aS'Kirk Hinrich misses 24-foot three point jumper'
p32
aa(lp33
S'11:07'
p34
aS'Dwight Howard defensive rebound'
p35
aS'2-0'
p36
aS'\xc2\xa0'
p37
aa(lp38
S'10:55'
p39
aS'Jason Richardson makes driving layup'
p40
aS'4-0'
p41
aS'\xc2\xa0'
p42
aa(lp43
S'10:41'
p44
aS'\xc2\xa0'
p45
aS'4-0'
p46
aS'Kirk Hinrich misses 20-foot jumper'
p47
aa(lp48
S'10:40'
p49
aS'Dwight Howard defensive rebound'
p50
aS'4-0'
p51
aS'\xc2\xa0'
p52
aa(lp53
S'10:33'
p54
aS'\xc2\xa0'
p55
aS'4-0'
p56
aS'Kirk Hinrich personal foul (Jason Richardson draws the foul)'
p57
aa(lp58
S'10:15'
p59
aS'shot clock turnover'
p60
aS'4-0'
p61
aS'\xc2\xa0'
p62
aa(lp63
S'10:06'
p64
aS'\xc2\xa0'
p65
aS'4-0'
p66
aS"Dwight Howard blocks Josh Smith's driving layup"
p67
aa(lp68
S'10:04'
p69
aS'\xc2\xa0'
p70
aS'4-0'
p71
aS'Atlanta defensive team rebound'
p72
aa(lp73
S'9:40'
p74
aS'Hedo Turkoglu bad pass (Josh Smith steals)'
p75
aS'4-0'
p76
aS'\xc2\xa0'
p77
aa(lp78
S'9:33'
p79
aS'\xc2\xa0'
p80
aS'4-0'
p81
aS'Jeff Teague misses two point shot'
p82
aa(lp83
S'9:33'
p84
aS'\xc2\xa0'
p85
aS'4-0'
p86
aS'Josh Smith offensive rebound'
p87
aa(lp88
S'9:33'
p89
aS'\xc2\xa0'
p90
aS'4-2'
p91
aS'Josh Smith makes two point shot'
p92
aa(lp93
S'9:33'
p94
aS'Ryan Anderson shooting foul (Josh Smith draws the foul)'
p95
aS'4-2'
p96
aS'\xc2\xa0'
p97
aa(lp98
S'9:33'
p99
aS'\xc2\xa0'
p100
aS'4-2'
p101
aS'Josh Smith misses free throw 1 of 1'
p102
aa(lp103
S'9:30'
p104
aS'\xc2\xa0'
p105
aS'4-2'
p106
aS'Marvin Williams offensive rebound'
p107
aa(lp108
S'9:22'
p109
aS'\xc2\xa0'
p110
aS'4-4'
p111
aS'Josh Smith makes 9-foot hook shot'
p112
aa(lp113
S'9:00'
p114
aS'Ryan Anderson misses 26-foot three point jumper'
p115
aS'4-4'
p116
aS'\xc2\xa0'
p117
aa(lp118
S'9:00'
p119
aS'\xc2\xa0'
p120
aS'4-4'
p121
aS'Jeff Teague defensive rebound'
p122
aa(lp123
S'8:52'
p124
aS'\xc2\xa0'
p125
aS'4-4'
p126
aS'Jeff Teague misses 20-foot jumper'
p127
aa(lp128
S'8:51'
p129
aS'Ryan Anderson defensive rebound'
p130
aS'4-4'
p131
aS'\xc2\xa0'
p132
aa(lp133
S'8:38'
p134
aS'Chris Duhon misses 25-foot three point jumper'
p135
aS'4-4'
p136
aS'\xc2\xa0'
p137
aa(lp138
S'8:37'
p139
aS'\xc2\xa0'
p140
aS'4-4'
p141
aS'Marvin Williams defensive rebound'
p142
aa(lp143
S'8:22'
p144
aS'\xc2\xa0'
p145
aS'4-4'
p146
aS'Marvin Williams misses 24-foot three point jumper'
p147
aa(lp148
S'8:21'
p149
aS'\xc2\xa0'
p150
aS'4-4'
p151
aS'Atlanta defensive team rebound'
p152
aa(lp153
S'8:08'
p154
aS'Jason Richardson misses 23-foot three point jumper'
p155
aS'4-4'
p156
aS'\xc2\xa0'
p157
aa(lp158
S'8:07'
p159
aS'\xc2\xa0'
p160
aS'4-4'
p161
aS'Zaza Pachulia defensive rebound'
p162
aa(lp163
S'7:48'
p164
aS'\xc2\xa0'
p165
aS'4-4'
p166
aS'Kirk Hinrich out of bounds lost ball turnover'
p167
aa(lp168
S'7:35'
p169
aS'Hedo Turkoglu misses driving layup'
p170
aS'4-4'
p171
aS'\xc2\xa0'
p172
aa(lp173
S'7:33'
p174
aS'\xc2\xa0'
p175
aS'4-4'
p176
aS'Josh Smith defensive rebound'
p177
aa(lp178
S'7:20'
p179
aS'\xc2\xa0'
p180
aS'4-6'
p181
aS'Josh Smith makes layup (Zaza Pachulia assists)'
p182
aa(lp183
S'7:20'
p184
aS'Hedo Turkoglu shooting foul (Josh Smith draws the foul)'
p185
aS'4-6'
p186
aS'\xc2\xa0'
p187
aa(lp188
S'7:20'
p189
aS'\xc2\xa0'
p190
aS'4-7'
p191
aS'Josh Smith makes free throw 1 of 1'
p192
aa(lp193
S'7:03'
p194
aS'Ryan Anderson misses 21-foot jumper'
p195
aS'4-7'
p196
aS'\xc2\xa0'
p197
aa(lp198
S'7:01'
p199
aS'\xc2\xa0'
p200
aS'4-7'
p201
aS'Kirk Hinrich defensive rebound'
p202
aa(lp203
S'6:58'
p204
aS'\xc2\xa0'
p205
aS'4-9'
p206
aS'Kirk Hinrich makes two point shot'
p207
aa(lp208
S'6:50'
p209
aS'Orlando full timeout'
p210
aa(lp211
S'6:33'
p212
aS'Jason Richardson misses 24-foot three point jumper'
p213
aS'4-9'
p214
aS'\xc2\xa0'
p215
aa(lp216
S'6:31'
p217
aS'Ryan Anderson offensive rebound'
p218
aS'4-9'
p219
aS'\xc2\xa0'
p220
aa(lp221
S'6:28'
p222
aS'Ryan Anderson makes two point shot'
p223
aS'6-9'
p224
aS'\xc2\xa0'
p225
aa(lp226
S'6:15'
p227
aS'\xc2\xa0'
p228
aS'6-11'
p229
aS'Jeff Teague makes driving layup (Kirk Hinrich assists)'
p230
aa(lp231
S'6:00'
p232
aS'Hedo Turkoglu misses driving layup'
p233
aS'6-11'
p234
aS'\xc2\xa0'
p235
aa(lp236
S'5:58'
p237
aS'Dwight Howard offensive rebound'
p238
aS'6-11'
p239
aS'\xc2\xa0'
p240
aa(lp241
S'5:52'
p242
aS'Dwight Howard bad pass (Kirk Hinrich steals)'
p243
aS'6-11'
p244
aS'\xc2\xa0'
p245
aa(lp246
S'5:48'
p247
aS'\xc2\xa0'
p248
aS'6-13'
p249
aS'Kirk Hinrich makes two point shot'
p250
aa(lp251
S'5:33'
p252
aS'Jason Richardson misses 13-foot jumper'
p253
aS'6-13'
p254
aS'\xc2\xa0'
p255
aa(lp256
S'5:31'
p257
aS'\xc2\xa0'
p258
aS'6-13'
p259
aS'Zaza Pachulia defensive rebound'
p260
aa(lp261
S'5:28'
p262
aS'Chris Duhon personal foul (Kirk Hinrich draws the foul)'
p263
aS'6-13'
p264
aS'\xc2\xa0'
p265
aa(lp266
S'5:22'
p267
aS'\xc2\xa0'
p268
aS'6-15'
p269
aS'Josh Smith makes layup (Marvin Williams assists)'
p270
aa(lp271
S'5:03'
p272
aS'Dwight Howard misses 6-foot jumper'
p273
aS'6-15'
p274
aS'\xc2\xa0'
p275
aa(lp276
S'5:01'
p277
aS'Ryan Anderson offensive rebound'
p278
aS'6-15'
p279
aS'\xc2\xa0'
p280
aa(lp281
S'5:01'
p282
aS'Glen Davis enters the game for Ryan Anderson'
p283
aS'6-15'
p284
aS'\xc2\xa0'
p285
aa(lp286
S'4:52'
p287
aS'Jason Richardson makes driving layup (Chris Duhon assists)'
p288
aS'8-15'
p289
aS'\xc2\xa0'
p290
aa(lp291
S'4:48'
p292
aS'Chris Duhon personal foul (Jeff Teague draws the foul)'
p293
aS'8-15'
p294
aS'\xc2\xa0'
p295
aa(lp296
S'4:48'
p297
aS'Ishmael Smith enters the game for Chris Duhon'
p298
aS'8-15'
p299
aS'\xc2\xa0'
p300
aa(lp301
S'4:39'
p302
aS'\xc2\xa0'
p303
aS'8-15'
p304
aS'Josh Smith misses driving layup'
p305
aa(lp306
S'4:37'
p307
aS'Dwight Howard defensive rebound'
p308
aS'8-15'
p309
aS'\xc2\xa0'
p310
aa(lp311
S'4:22'
p312
aS'Glen Davis makes 17-foot jumper (Dwight Howard assists)'
p313
aS'10-15'
p314
aS'\xc2\xa0'
p315
aa(lp316
S'4:13'
p317
aS'Atlanta full timeout'
p318
aa(lp319
S'4:13'
p320
aS'J.J. Redick enters the game for Jason Richardson'
p321
aS'10-15'
p322
aS'\xc2\xa0'
p323
aa(lp324
S'4:03'
p325
aS'\xc2\xa0'
p326
aS'10-15'
p327
aS'Jeff Teague misses 25-foot three point jumper'
p328
aa(lp329
S'4:01'
p330
aS'\xc2\xa0'
p331
aS'10-15'
p332
aS'Zaza Pachulia offensive rebound'
p333
aa(lp334
S'3:46'
p335
aS'\xc2\xa0'
p336
aS'10-15'
p337
aS'Josh Smith misses 10-foot hook shot'
p338
aa(lp339
S'3:44'
p340
aS'\xc2\xa0'
p341
aS'10-15'
p342
aS'Marvin Williams offensive rebound'
p343
aa(lp344
S'3:43'
p345
aS'\xc2\xa0'
p346
aS'10-15'
p347
aS"Dwight Howard blocks Marvin Williams's two point shot"
p348
aa(lp349
S'3:41'
p350
aS'Glen Davis defensive rebound'
p351
aS'10-15'
p352
aS'\xc2\xa0'
p353
aa(lp354
S'3:33'
p355
aS'Dwight Howard makes 5-foot two point shot (Ishmael Smith assists)'
p356
aS'12-15'
p357
aS'\xc2\xa0'
p358
aa(lp359
S'3:06'
p360
aS'\xc2\xa0'
p361
aS'12-17'
p362
aS'Jeff Teague makes 5-foot two point shot'
p363
aa(lp364
S'2:49'
p365
aS'Hedo Turkoglu misses 25-foot three point jumper'
p366
aS'12-17'
p367
aS'\xc2\xa0'
p368
aa(lp369
S'2:47'
p370
aS'\xc2\xa0'
p371
aS'12-17'
p372
aS'Jeff Teague defensive rebound'
p373
aa(lp374
S'2:40'
p375
aS'\xc2\xa0'
p376
aS'12-19'
p377
aS'Jeff Teague makes driving layup'
p378
aa(lp379
S'2:19'
p380
aS'\xc2\xa0'
p381
aS'12-19'
p382
aS'Jeff Teague shooting foul (Ishmael Smith draws the foul)'
p383
aa(lp384
S'2:19'
p385
aS'Ishmael Smith makes free throw 1 of 2'
p386
aS'13-19'
p387
aS'\xc2\xa0'
p388
aa(lp389
S'2:19'
p390
aS'\xc2\xa0'
p391
aS'13-19'
p392
aS'Willie Green enters the game for Kirk Hinrich'
p393
aa(lp394
S'2:19'
p395
aS'\xc2\xa0'
p396
aS'13-19'
p397
aS'Vladimir Radmanovic enters the game for Marvin Williams'
p398
aa(lp399
S'2:19'
p400
aS'Ishmael Smith makes free throw 2 of 2'
p401
aS'14-19'
p402
aS'\xc2\xa0'
p403
aa(lp404
S'2:09'
p405
aS'\xc2\xa0'
p406
aS'14-21'
p407
aS'Josh Smith makes 8-foot two point shot'
p408
aa(lp409
S'2:09'
p410
aS'Dwight Howard defensive goaltending'
p411
aS'14-21'
p412
aS'\xc2\xa0'
p413
aa(lp414
S'1:58'
p415
aS'Ishmael Smith makes driving layup'
p416
aS'16-21'
p417
aS'\xc2\xa0'
p418
aa(lp419
S'1:53'
p420
aS'\xc2\xa0'
p421
aS'16-23'
p422
aS'Josh Smith makes 1-foot two point shot (Jeff Teague assists)'
p423
aa(lp424
S'1:37'
p425
aS'\xc2\xa0'
p426
aS'16-23'
p427
aS'Jeff Teague shooting foul (Ishmael Smith draws the foul)'
p428
aa(lp429
S'1:37'
p430
aS'Ishmael Smith makes free throw 1 of 2'
p431
aS'17-23'
p432
aS'\xc2\xa0'
p433
aa(lp434
S'1:37'
p435
aS'\xc2\xa0'
p436
aS'17-23'
p437
aS'Jannero Pargo enters the game for Jeff Teague'
p438
aa(lp439
S'1:37'
p440
aS'Quentin Richardson enters the game for Hedo Turkoglu'
p441
aS'17-23'
p442
aS'\xc2\xa0'
p443
aa(lp444
S'1:37'
p445
aS'Ishmael Smith makes free throw 2 of 2'
p446
aS'18-23'
p447
aS'\xc2\xa0'
p448
aa(lp449
S'1:19'
p450
aS'\xc2\xa0'
p451
aS'18-23'
p452
aS'Zaza Pachulia misses 20-foot jumper'
p453
aa(lp454
S'1:17'
p455
aS'\xc2\xa0'
p456
aS'18-23'
p457
aS'Atlanta offensive team rebound'
p458
aa(lp459
S'1:17'
p460
aS'Glen Davis loose ball foul (Josh Smith draws the foul)'
p461
aS'18-23'
p462
aS'\xc2\xa0'
p463
aa(lp464
S'1:17'
p465
aS'\xc2\xa0'
p466
aS'18-24'
p467
aS'Josh Smith makes free throw 1 of 2'
p468
aa(lp469
S'1:17'
p470
aS'\xc2\xa0'
p471
aS'18-24'
p472
aS'Josh Smith misses free throw 2 of 2'
p473
aa(lp474
S'1:16'
p475
aS'Dwight Howard defensive rebound'
p476
aS'18-24'
p477
aS'\xc2\xa0'
p478
aa(lp479
S'1:02'
p480
aS'J.J. Redick misses 24-foot three point jumper'
p481
aS'18-24'
p482
aS'\xc2\xa0'
p483
aa(lp484
S'1:01'
p485
aS'\xc2\xa0'
p486
aS'18-24'
p487
aS'Zaza Pachulia defensive rebound'
p488
aa(lp489
S'0:53'
p490
aS'\xc2\xa0'
p491
aS'18-24'
p492
aS'Josh Smith misses 19-foot jumper'
p493
aa(lp494
S'0:51'
p495
aS'\xc2\xa0'
p496
aS'18-24'
p497
aS'Zaza Pachulia offensive rebound'
p498
aa(lp499
S'0:48'
p500
aS'\xc2\xa0'
p501
aS'18-27'
p502
aS'Jannero Pargo makes 23-foot three point jumper (Zaza Pachulia assists)'
p503
aa(lp504
S'0:34'
p505
aS'Ishmael Smith misses driving layup'
p506
aS'18-27'
p507
aS'\xc2\xa0'
p508
aa(lp509
S'0:33'
p510
aS'\xc2\xa0'
p511
aS'18-27'
p512
aS'Zaza Pachulia defensive rebound'
p513
aa(lp514
S'0:29'
p515
aS'\xc2\xa0'
p516
aS'18-29'
p517
aS'Willie Green makes 4-foot running jumper'
p518
aa(lp519
S'0:11'
p520
aS'Ishmael Smith makes driving layup'
p521
aS'20-29'
p522
aS'\xc2\xa0'
p523
aa(lp524
S'0:01'
p525
aS'Ishmael Smith kicked ball'
p526
aS'20-29'
p527
aS'\xc2\xa0'
p528
aa(lp529
S'0:00'
p530
aS'\xc2\xa0'
p531
aS'20-29'
p532
aS'Willie Green bad pass (Ishmael Smith steals)'
p533
aa(lp534
S'0:00'
p535
aS'Ishmael Smith misses 25-foot three point jumper'
p536
aS'20-29'
p537
aS'\xc2\xa0'
p538
aa(lp539
S'0:00'
p540
aS'Orlando offensive team rebound'
p541
aS'20-29'
p542
aS'\xc2\xa0'
p543
aa(lp544
S'0:00'
p545
aS'End of the 1st Quarter'
p546
aa(lp547
S'2nd Quarter Summary'
p548
aa(lp549
a(lp550
S'12:00'
p551
aS'Start of the 2nd Quarter'
p552
aa(lp553
S'11:45'
p554
aS'Ryan Anderson misses 19-foot jumper'
p555
aS'20-29'
p556
aS'\xc2\xa0'
p557
aa(lp558
S'11:44'
p559
aS'\xc2\xa0'
p560
aS'20-29'
p561
aS'Jannero Pargo defensive rebound'
p562
aa(lp563
S'11:22'
p564
aS'\xc2\xa0'
p565
aS'20-31'
p566
aS'Willie Green makes 9-foot two point shot (Josh Smith assists)'
p567
aa(lp568
S'11:06'
p569
aS'J.J. Redick makes two point shot (Ishmael Smith assists)'
p570
aS'22-31'
p571
aS'\xc2\xa0'
p572
aa(lp573
S'10:45'
p574
aS'\xc2\xa0'
p575
aS'22-31'
p576
aS'Willie Green misses 23-foot three point jumper'
p577
aa(lp578
S'10:44'
p579
aS'\xc2\xa0'
p580
aS'22-31'
p581
aS'Josh Smith offensive rebound'
p582
aa(lp583
S'10:38'
p584
aS'\xc2\xa0'
p585
aS'22-34'
p586
aS'Jannero Pargo makes 25-foot three point jumper (Tracy McGrady assists)'
p587
aa(lp588
S'10:21'
p589
aS'J.J. Redick makes 23-foot three point jumper (Ishmael Smith assists)'
p590
aS'25-34'
p591
aS'\xc2\xa0'
p592
aa(lp593
S'10:11'
p594
aS'\xc2\xa0'
p595
aS'25-34'
p596
aS'Josh Smith offensive foul (Ishmael Smith draws the foul)'
p597
aa(lp598
S'10:11'
p599
aS'\xc2\xa0'
p600
aS'25-34'
p601
aS'Josh Smith turnover'
p602
aa(lp603
S'9:56'
p604
aS'Quentin Richardson makes 26-foot three point jumper (Ishmael Smith assists)'
p605
aS'28-34'
p606
aS'\xc2\xa0'
p607
aa(lp608
S'9:32'
p609
aS'\xc2\xa0'
p610
aS'28-36'
p611
aS'Jannero Pargo makes 16-foot two point shot'
p612
aa(lp613
S'9:11'
p614
aS'J.J. Redick misses 20-foot jumper'
p615
aS'28-36'
p616
aS'\xc2\xa0'
p617
aa(lp618
S'9:10'
p619
aS'\xc2\xa0'
p620
aS'28-36'
p621
aS'Josh Smith defensive rebound'
p622
aa(lp623
S'8:56'
p624
aS'\xc2\xa0'
p625
aS'28-36'
p626
aS'Vladimir Radmanovic 3 second'
p627
aa(lp628
S'8:56'
p629
aS'\xc2\xa0'
p630
aS'28-36'
p631
aS'Ivan Johnson enters the game for Josh Smith'
p632
aa(lp633
S'8:56'
p634
aS'\xc2\xa0'
p635
aS'28-36'
p636
aS' Official timeout'
p637
aa(lp638
S'8:33'
p639
aS'Ryan Anderson misses 10-foot two point shot'
p640
aS'28-36'
p641
aS'\xc2\xa0'
p642
aa(lp643
S'8:33'
p644
aS'\xc2\xa0'
p645
aS'28-36'
p646
aS'Jannero Pargo defensive rebound'
p647
aa(lp648
S'8:21'
p649
aS'Quentin Richardson personal foul (Tracy McGrady draws the foul)'
p650
aS'28-36'
p651
aS'\xc2\xa0'
p652
aa(lp653
S'8:10'
p654
aS'\xc2\xa0'
p655
aS'28-36'
p656
aS"Ryan Anderson blocks Vladimir Radmanovic's driving layup"
p657
aa(lp658
S'8:08'
p659
aS'Glen Davis defensive rebound'
p660
aS'28-36'
p661
aS'\xc2\xa0'
p662
aa(lp663
S'8:04'
p664
aS'Glen Davis offensive foul (Ivan Johnson draws the foul)'
p665
aS'28-36'
p666
aS'\xc2\xa0'
p667
aa(lp668
S'8:04'
p669
aS'Glen Davis turnover'
p670
aS'28-36'
p671
aS'\xc2\xa0'
p672
aa(lp673
S'8:04'
p674
aS'Dwight Howard enters the game for Glen Davis'
p675
aS'28-36'
p676
aS'\xc2\xa0'
p677
aa(lp678
S'8:04'
p679
aS'\xc2\xa0'
p680
aS'28-36'
p681
aS'Zaza Pachulia enters the game for Ivan Johnson'
p682
aa(lp683
S'7:46'
p684
aS'\xc2\xa0'
p685
aS'28-36'
p686
aS'Willie Green misses 25-foot three point jumper'
p687
aa(lp688
S'7:45'
p689
aS'\xc2\xa0'
p690
aS'28-36'
p691
aS'Zaza Pachulia offensive rebound'
p692
aa(lp693
S'7:39'
p694
aS'\xc2\xa0'
p695
aS'28-36'
p696
aS'Vladimir Radmanovic misses 23-foot three point jumper'
p697
aa(lp698
S'7:37'
p699
aS'\xc2\xa0'
p700
aS'28-36'
p701
aS'Atlanta defensive team rebound'
p702
aa(lp703
S'7:20'
p704
aS'Dwight Howard lost ball (Zaza Pachulia steals)'
p705
aS'28-36'
p706
aS'\xc2\xa0'
p707
aa(lp708
S'7:15'
p709
aS'\xc2\xa0'
p710
aS'28-39'
p711
aS'Jannero Pargo makes 24-foot three point jumper (Tracy McGrady assists)'
p712
aa(lp713
S'6:58'
p714
aS'Ryan Anderson misses 4-foot two point shot'
p715
aS'28-39'
p716
aS'\xc2\xa0'
p717
aa(lp718
S'6:56'
p719
aS'\xc2\xa0'
p720
aS'28-39'
p721
aS'Tracy McGrady defensive rebound'
p722
aa(lp723
S'6:52'
p724
aS'\xc2\xa0'
p725
aS'28-41'
p726
aS'Jannero Pargo makes 18-foot two point shot (Tracy McGrady assists)'
p727
aa(lp728
S'6:43'
p729
aS'Orlando full timeout'
p730
aa(lp731
S'6:43'
p732
aS'\xc2\xa0'
p733
aS'28-41'
p734
aS'Kirk Hinrich enters the game for Willie Green'
p735
aa(lp736
S'6:43'
p737
aS'Jason Richardson enters the game for Ishmael Smith'
p738
aS'28-41'
p739
aS'\xc2\xa0'
p740
aa(lp741
S'6:43'
p742
aS'Chris Duhon enters the game for J.J. Redick'
p743
aS'28-41'
p744
aS'\xc2\xa0'
p745
aa(lp746
S'6:39'
p747
aS'\xc2\xa0'
p748
aS'28-41'
p749
aS'Jannero Pargo personal foul (Dwight Howard draws the foul)'
p750
aa(lp751
S'6:28'
p752
aS'Chris Duhon misses layup'
p753
aS'28-41'
p754
aS'\xc2\xa0'
p755
aa(lp756
S'6:26'
p757
aS'\xc2\xa0'
p758
aS'28-41'
p759
aS'Kirk Hinrich defensive rebound'
p760
aa(lp761
S'6:20'
p762
aS'\xc2\xa0'
p763
aS'28-41'
p764
aS'Zaza Pachulia lost ball (Dwight Howard steals)'
p765
aa(lp766
S'6:11'
p767
aS'Quentin Richardson bad pass'
p768
aS'28-41'
p769
aS'\xc2\xa0'
p770
aa(lp771
S'5:58'
p772
aS'\xc2\xa0'
p773
aS'28-41'
p774
aS'Tracy McGrady misses driving layup'
p775
aa(lp776
S'5:58'
p777
aS'Dwight Howard defensive rebound'
p778
aS'28-41'
p779
aS'\xc2\xa0'
p780
aa(lp781
S'5:35'
p782
aS'Chris Duhon misses 27-foot three point jumper'
p783
aS'28-41'
p784
aS'\xc2\xa0'
p785
aa(lp786
S'5:35'
p787
aS'Orlando defensive team rebound'
p788
aS'28-41'
p789
aS'\xc2\xa0'
p790
aa(lp791
S'5:35'
p792
aS'Hedo Turkoglu enters the game for Quentin Richardson'
p793
aS'28-41'
p794
aS'\xc2\xa0'
p795
aa(lp796
S'5:22'
p797
aS'\xc2\xa0'
p798
aS'28-41'
p799
aS'Tracy McGrady lost ball (Jason Richardson steals)'
p800
aa(lp801
S'5:05'
p802
aS'Hedo Turkoglu makes 18-foot jumper (Jason Richardson assists)'
p803
aS'30-41'
p804
aS'\xc2\xa0'
p805
aa(lp806
S'4:33'
p807
aS'\xc2\xa0'
p808
aS'30-41'
p809
aS'Kirk Hinrich misses driving layup'
p810
aa(lp811
S'4:31'
p812
aS'\xc2\xa0'
p813
aS'30-41'
p814
aS'Zaza Pachulia misses tip shot'
p815
aa(lp816
S'4:31'
p817
aS'\xc2\xa0'
p818
aS'30-41'
p819
aS'Zaza Pachulia offensive rebound'
p820
aa(lp821
S'4:31'
p822
aS'Hedo Turkoglu defensive rebound'
p823
aS'30-41'
p824
aS'\xc2\xa0'
p825
aa(lp826
S'4:20'
p827
aS'Jason Richardson bad pass (Vladimir Radmanovic steals)'
p828
aS'30-41'
p829
aS'\xc2\xa0'
p830
aa(lp831
S'4:16'
p832
aS'\xc2\xa0'
p833
aS'30-43'
p834
aS'Zaza Pachulia makes layup (Kirk Hinrich assists)'
p835
aa(lp836
S'4:00'
p837
aS'Chris Duhon bad pass (Jannero Pargo steals)'
p838
aS'30-43'
p839
aS'\xc2\xa0'
p840
aa(lp841
S'3:55'
p842
aS'\xc2\xa0'
p843
aS'30-45'
p844
aS'Kirk Hinrich makes two point shot (Jannero Pargo assists)'
p845
aa(lp846
S'3:45'
p847
aS'Orlando 20 Sec. timeout'
p848
aa(lp849
S'3:45'
p850
aS'\xc2\xa0'
p851
aS'30-45'
p852
aS'Josh Smith enters the game for Vladimir Radmanovic'
p853
aa(lp854
S'3:45'
p855
aS'\xc2\xa0'
p856
aS'30-45'
p857
aS'Marvin Williams enters the game for Tracy McGrady'
p858
aa(lp859
S'3:45'
p860
aS'Earl Clark enters the game for Ryan Anderson'
p861
aS'30-45'
p862
aS'\xc2\xa0'
p863
aa(lp864
S'3:27'
p865
aS'Hedo Turkoglu misses 27-foot three point jumper'
p866
aS'30-45'
p867
aS'\xc2\xa0'
p868
aa(lp869
S'3:25'
p870
aS'\xc2\xa0'
p871
aS'30-45'
p872
aS'Kirk Hinrich defensive rebound'
p873
aa(lp874
S'3:20'
p875
aS'\xc2\xa0'
p876
aS'30-47'
p877
aS'Jannero Pargo makes 19-foot jumper (Kirk Hinrich assists)'
p878
aa(lp879
S'2:57'
p880
aS'Jason Richardson misses 25-foot three point jumper'
p881
aS'30-47'
p882
aS'\xc2\xa0'
p883
aa(lp884
S'2:55'
p885
aS'\xc2\xa0'
p886
aS'30-47'
p887
aS'Jannero Pargo defensive rebound'
p888
aa(lp889
S'2:47'
p890
aS'\xc2\xa0'
p891
aS'30-47'
p892
aS'Jannero Pargo misses 16-foot jumper'
p893
aa(lp894
S'2:46'
p895
aS'Dwight Howard defensive rebound'
p896
aS'30-47'
p897
aS'\xc2\xa0'
p898
aa(lp899
S'2:35'
p900
aS'\xc2\xa0'
p901
aS'30-47'
p902
aS'Kirk Hinrich personal foul (Dwight Howard draws the foul)'
p903
aa(lp904
S'2:35'
p905
aS'Atlanta full timeout'
p906
aa(lp907
S'2:35'
p908
aS'Ishmael Smith enters the game for Chris Duhon'
p909
aS'30-47'
p910
aS'\xc2\xa0'
p911
aa(lp912
S'2:25'
p913
aS"Kirk Hinrich blocks Ishmael Smith's two point shot"
p914
aS'30-47'
p915
aS'\xc2\xa0'
p916
aa(lp917
S'2:24'
p918
aS'Ishmael Smith offensive rebound'
p919
aS'30-47'
p920
aS'\xc2\xa0'
p921
aa(lp922
S'2:21'
p923
aS'shot clock turnover'
p924
aS'30-47'
p925
aS'\xc2\xa0'
p926
aa(lp927
S'2:08'
p928
aS'\xc2\xa0'
p929
aS'30-47'
p930
aS"Dwight Howard blocks Josh Smith's 5-foot two point shot"
p931
aa(lp932
S'2:05'
p933
aS'Jason Richardson defensive rebound'
p934
aS'30-47'
p935
aS'\xc2\xa0'
p936
aa(lp937
S'1:47'
p938
aS'Hedo Turkoglu misses 15-foot jumper'
p939
aS'30-47'
p940
aS'\xc2\xa0'
p941
aa(lp942
S'1:46'
p943
aS'\xc2\xa0'
p944
aS'30-47'
p945
aS'Marvin Williams defensive rebound'
p946
aa(lp947
S'1:37'
p948
aS'\xc2\xa0'
p949
aS'30-47'
p950
aS'Kirk Hinrich misses 20-foot jumper'
p951
aa(lp952
S'1:36'
p953
aS'Ishmael Smith defensive rebound'
p954
aS'30-47'
p955
aS'\xc2\xa0'
p956
aa(lp957
S'1:27'
p958
aS'Earl Clark misses 17-foot jumper'
p959
aS'30-47'
p960
aS'\xc2\xa0'
p961
aa(lp962
S'1:25'
p963
aS'\xc2\xa0'
p964
aS'30-47'
p965
aS'Marvin Williams defensive rebound'
p966
aa(lp967
S'1:05'
p968
aS'\xc2\xa0'
p969
aS'30-47'
p970
aS'Jannero Pargo misses 24-foot three point jumper'
p971
aa(lp972
S'1:02'
p973
aS'\xc2\xa0'
p974
aS'30-47'
p975
aS'Kirk Hinrich offensive rebound'
p976
aa(lp977
S'0:54'
p978
aS'\xc2\xa0'
p979
aS'30-47'
p980
aS'Willie Green enters the game for Kirk Hinrich'
p981
aa(lp982
S'0:48'
p983
aS'\xc2\xa0'
p984
aS'30-47'
p985
aS'Jannero Pargo misses 18-foot jumper'
p986
aa(lp987
S'0:47'
p988
aS'Earl Clark defensive rebound'
p989
aS'30-47'
p990
aS'\xc2\xa0'
p991
aa(lp992
S'0:25'
p993
aS'Ishmael Smith misses 20-foot jumper'
p994
aS'30-47'
p995
aS'\xc2\xa0'
p996
aa(lp997
S'0:24'
p998
aS'\xc2\xa0'
p999
aS'30-47'
p1000
aS'Josh Smith defensive rebound'
p1001
aa(lp1002
S'0:04'
p1003
aS'Earl Clark personal take (Josh Smith draws the foul)'
p1004
aS'30-47'
p1005
aS'\xc2\xa0'
p1006
aa(lp1007
S'0:04'
p1008
aS'Atlanta 20 Sec. timeout'
p1009
aa(lp1010
S'0:00'
p1011
aS'\xc2\xa0'
p1012
aS'30-47'
p1013
aS'Josh Smith misses 15-foot two point shot'
p1014
aa(lp1015
S'0:00'
p1016
aS'\xc2\xa0'
p1017
aS'30-47'
p1018
aS'Atlanta offensive team rebound'
p1019
aa(lp1020
S'0:00'
p1021
aS'End of the 2nd Quarter'
p1022
aa(lp1023
S'3rd Quarter Summary'
p1024
aa(lp1025
a(lp1026
S'12:00'
p1027
aS'Start of the 3rd Quarter'
p1028
aa(lp1029
S'11:33'
p1030
aS'Dwight Howard makes driving layup (Chris Duhon assists)'
p1031
aS'32-47'
p1032
aS'\xc2\xa0'
p1033
aa(lp1034
S'11:18'
p1035
aS'\xc2\xa0'
p1036
aS'32-47'
p1037
aS'Kirk Hinrich misses 17-foot jumper'
p1038
aa(lp1039
S'11:17'
p1040
aS'Chris Duhon defensive rebound'
p1041
aS'32-47'
p1042
aS'\xc2\xa0'
p1043
aa(lp1044
S'11:11'
p1045
aS'Jason Richardson misses 24-foot three point jumper'
p1046
aS'32-47'
p1047
aS'\xc2\xa0'
p1048
aa(lp1049
S'11:08'
p1050
aS'\xc2\xa0'
p1051
aS'32-47'
p1052
aS'Marvin Williams defensive rebound'
p1053
aa(lp1054
S'11:00'
p1055
aS'\xc2\xa0'
p1056
aS'32-47'
p1057
aS'Josh Smith misses 7-foot hook shot'
p1058
aa(lp1059
S'10:59'
p1060
aS'Dwight Howard defensive rebound'
p1061
aS'32-47'
p1062
aS'\xc2\xa0'
p1063
aa(lp1064
S'10:44'
p1065
aS'Ryan Anderson makes 24-foot three point jumper (Dwight Howard assists)'
p1066
aS'35-47'
p1067
aS'\xc2\xa0'
p1068
aa(lp1069
S'10:22'
p1070
aS'\xc2\xa0'
p1071
aS'35-47'
p1072
aS"Hedo Turkoglu blocks Josh Smith's 5-foot jumper"
p1073
aa(lp1074
S'10:22'
p1075
aS'\xc2\xa0'
p1076
aS'35-47'
p1077
aS'Jumpball: Hedo Turkoglu vs. Josh Smith (Jeff Teague gains possession)'
p1078
aa(lp1079
S'10:22'
p1080
aS'\xc2\xa0'
p1081
aS'35-47'
p1082
aS'Atlanta offensive team rebound'
p1083
aa(lp1084
S'10:11'
p1085
aS'\xc2\xa0'
p1086
aS'35-49'
p1087
aS'Jeff Teague makes 5-foot two point shot'
p1088
aa(lp1089
S'9:53'
p1090
aS'Hedo Turkoglu bad pass'
p1091
aS'35-49'
p1092
aS'\xc2\xa0'
p1093
aa(lp1094
S'9:42'
p1095
aS'\xc2\xa0'
p1096
aS'35-49'
p1097
aS"Dwight Howard blocks Zaza Pachulia's 4-foot two point shot"
p1098
aa(lp1099
S'9:40'
p1100
aS'Jason Richardson defensive rebound'
p1101
aS'35-49'
p1102
aS'\xc2\xa0'
p1103
aa(lp1104
S'9:36'
p1105
aS'Dwight Howard offensive foul (Zaza Pachulia draws the foul)'
p1106
aS'35-49'
p1107
aS'\xc2\xa0'
p1108
aa(lp1109
S'9:36'
p1110
aS'Dwight Howard turnover'
p1111
aS'35-49'
p1112
aS'\xc2\xa0'
p1113
aa(lp1114
S'9:26'
p1115
aS'\xc2\xa0'
p1116
aS'35-49'
p1117
aS'Kirk Hinrich lost ball (Jason Richardson steals)'
p1118
aa(lp1119
S'9:19'
p1120
aS'Jason Richardson makes 24-foot three point jumper (Hedo Turkoglu assists)'
p1121
aS'38-49'
p1122
aS'\xc2\xa0'
p1123
aa(lp1124
S'8:56'
p1125
aS'\xc2\xa0'
p1126
aS'38-49'
p1127
aS'Josh Smith misses 20-foot jumper'
p1128
aa(lp1129
S'8:56'
p1130
aS'Jason Richardson defensive rebound'
p1131
aS'38-49'
p1132
aS'\xc2\xa0'
p1133
aa(lp1134
S'8:42'
p1135
aS'Chris Duhon misses 25-foot three point jumper'
p1136
aS'38-49'
p1137
aS'\xc2\xa0'
p1138
aa(lp1139
S'8:42'
p1140
aS'Orlando defensive team rebound'
p1141
aS'38-49'
p1142
aS'\xc2\xa0'
p1143
aa(lp1144
S'8:26'
p1145
aS'\xc2\xa0'
p1146
aS'38-51'
p1147
aS'Josh Smith makes 6-foot two point shot (Kirk Hinrich assists)'
p1148
aa(lp1149
S'8:04'
p1150
aS'Ryan Anderson misses 26-foot three point jumper'
p1151
aS'38-51'
p1152
aS'\xc2\xa0'
p1153
aa(lp1154
S'8:03'
p1155
aS'Dwight Howard offensive rebound'
p1156
aS'38-51'
p1157
aS'\xc2\xa0'
p1158
aa(lp1159
S'8:03'
p1160
aS'\xc2\xa0'
p1161
aS'38-51'
p1162
aS'Zaza Pachulia shooting foul (Dwight Howard draws the foul)'
p1163
aa(lp1164
S'8:03'
p1165
aS'Dwight Howard misses free throw 1 of 2'
p1166
aS'38-51'
p1167
aS'\xc2\xa0'
p1168
aa(lp1169
S'8:03'
p1170
aS'Orlando offensive team rebound'
p1171
aS'38-51'
p1172
aS'\xc2\xa0'
p1173
aa(lp1174
S'8:03'
p1175
aS'Dwight Howard makes free throw 2 of 2'
p1176
aS'39-51'
p1177
aS'\xc2\xa0'
p1178
aa(lp1179
S'7:50'
p1180
aS'\xc2\xa0'
p1181
aS'39-53'
p1182
aS'Jeff Teague makes 6-foot two point shot'
p1183
aa(lp1184
S'7:28'
p1185
aS'Hedo Turkoglu misses 26-foot three point jumper'
p1186
aS'39-53'
p1187
aS'\xc2\xa0'
p1188
aa(lp1189
S'7:28'
p1190
aS'\xc2\xa0'
p1191
aS'39-53'
p1192
aS'Josh Smith defensive rebound'
p1193
aa(lp1194
S'7:24'
p1195
aS'Jason Richardson shooting foul (Marvin Williams draws the foul)'
p1196
aS'39-53'
p1197
aS'\xc2\xa0'
p1198
aa(lp1199
S'7:24'
p1200
aS'\xc2\xa0'
p1201
aS'39-54'
p1202
aS'Marvin Williams makes free throw 1 of 2'
p1203
aa(lp1204
S'7:24'
p1205
aS'\xc2\xa0'
p1206
aS'39-55'
p1207
aS'Marvin Williams makes free throw 2 of 2'
p1208
aa(lp1209
S'7:13'
p1210
aS'Chris Duhon misses 5-foot two point shot'
p1211
aS'39-55'
p1212
aS'\xc2\xa0'
p1213
aa(lp1214
S'7:11'
p1215
aS'Chris Duhon offensive rebound'
p1216
aS'39-55'
p1217
aS'\xc2\xa0'
p1218
aa(lp1219
S'7:07'
p1220
aS'Hedo Turkoglu misses 26-foot three point jumper'
p1221
aS'39-55'
p1222
aS'\xc2\xa0'
p1223
aa(lp1224
S'7:07'
p1225
aS'Orlando offensive team rebound'
p1226
aS'39-55'
p1227
aS'\xc2\xa0'
p1228
aa(lp1229
S'7:03'
p1230
aS'Chris Duhon makes 20-foot jumper'
p1231
aS'41-55'
p1232
aS'\xc2\xa0'
p1233
aa(lp1234
S'6:43'
p1235
aS'\xc2\xa0'
p1236
aS'41-55'
p1237
aS'Zaza Pachulia misses 16-foot jumper'
p1238
aa(lp1239
S'6:43'
p1240
aS'Jason Richardson defensive rebound'
p1241
aS'41-55'
p1242
aS'\xc2\xa0'
p1243
aa(lp1244
S'6:28'
p1245
aS'Hedo Turkoglu misses 25-foot three point jumper'
p1246
aS'41-55'
p1247
aS'\xc2\xa0'
p1248
aa(lp1249
S'6:26'
p1250
aS'\xc2\xa0'
p1251
aS'41-55'
p1252
aS'Josh Smith defensive rebound'
p1253
aa(lp1254
S'6:07'
p1255
aS'\xc2\xa0'
p1256
aS'41-55'
p1257
aS'Jeff Teague bad pass (Hedo Turkoglu steals)'
p1258
aa(lp1259
S'5:56'
p1260
aS'Ryan Anderson makes 26-foot three point jumper (Jason Richardson assists)'
p1261
aS'44-55'
p1262
aS'\xc2\xa0'
p1263
aa(lp1264
S'5:35'
p1265
aS'\xc2\xa0'
p1266
aS'44-55'
p1267
aS'Marvin Williams misses 18-foot jumper'
p1268
aa(lp1269
S'5:35'
p1270
aS'Dwight Howard defensive rebound'
p1271
aS'44-55'
p1272
aS'\xc2\xa0'
p1273
aa(lp1274
S'5:28'
p1275
aS'Hedo Turkoglu makes 26-foot three point jumper (Chris Duhon assists)'
p1276
aS'47-55'
p1277
aS'\xc2\xa0'
p1278
aa(lp1279
S'5:28'
p1280
aS'Atlanta full timeout'
p1281
aa(lp1282
S'5:28'
p1283
aS'\xc2\xa0'
p1284
aS'47-55'
p1285
aS'Jannero Pargo enters the game for Jeff Teague'
p1286
aa(lp1287
S'5:16'
p1288
aS'\xc2\xa0'
p1289
aS'47-55'
p1290
aS'Zaza Pachulia bad pass (Ryan Anderson steals)'
p1291
aa(lp1292
S'4:58'
p1293
aS"Kirk Hinrich blocks Jason Richardson's 10-foot two point shot"
p1294
aS'47-55'
p1295
aS'\xc2\xa0'
p1296
aa(lp1297
S'4:58'
p1298
aS'Orlando offensive team rebound'
p1299
aS'47-55'
p1300
aS'\xc2\xa0'
p1301
aa(lp1302
S'4:50'
p1303
aS'Jason Richardson misses 26-foot three point jumper'
p1304
aS'47-55'
p1305
aS'\xc2\xa0'
p1306
aa(lp1307
S'4:48'
p1308
aS'\xc2\xa0'
p1309
aS'47-55'
p1310
aS'Zaza Pachulia defensive rebound'
p1311
aa(lp1312
S'4:26'
p1313
aS'\xc2\xa0'
p1314
aS'47-58'
p1315
aS'Josh Smith makes 24-foot three point jumper (Jannero Pargo assists)'
p1316
aa(lp1317
S'3:59'
p1318
aS'Ryan Anderson makes 16-foot two point shot (Chris Duhon assists)'
p1319
aS'49-58'
p1320
aS'\xc2\xa0'
p1321
aa(lp1322
S'3:38'
p1323
aS'\xc2\xa0'
p1324
aS'49-58'
p1325
aS'Kirk Hinrich misses 26-foot three point jumper'
p1326
aa(lp1327
S'3:36'
p1328
aS'Chris Duhon defensive rebound'
p1329
aS'49-58'
p1330
aS'\xc2\xa0'
p1331
aa(lp1332
S'3:32'
p1333
aS'Hedo Turkoglu bad pass (Marvin Williams steals)'
p1334
aS'49-58'
p1335
aS'\xc2\xa0'
p1336
aa(lp1337
S'3:23'
p1338
aS'\xc2\xa0'
p1339
aS'49-58'
p1340
aS'Josh Smith misses jumper'
p1341
aa(lp1342
S'3:21'
p1343
aS'Dwight Howard defensive rebound'
p1344
aS'49-58'
p1345
aS'\xc2\xa0'
p1346
aa(lp1347
S'3:06'
p1348
aS'Ryan Anderson out of bounds lost ball turnover'
p1349
aS'49-58'
p1350
aS'\xc2\xa0'
p1351
aa(lp1352
S'3:06'
p1353
aS'\xc2\xa0'
p1354
aS'49-58'
p1355
aS'Vladimir Radmanovic enters the game for Marvin Williams'
p1356
aa(lp1357
S'3:06'
p1358
aS'\xc2\xa0'
p1359
aS'49-58'
p1360
aS'Willie Green enters the game for Kirk Hinrich'
p1361
aa(lp1362
S'3:06'
p1363
aS'J.J. Redick enters the game for Jason Richardson'
p1364
aS'49-58'
p1365
aS'\xc2\xa0'
p1366
aa(lp1367
S'2:55'
p1368
aS'\xc2\xa0'
p1369
aS'49-58'
p1370
aS'Willie Green misses 19-foot jumper'
p1371
aa(lp1372
S'2:54'
p1373
aS'Hedo Turkoglu defensive rebound'
p1374
aS'49-58'
p1375
aS'\xc2\xa0'
p1376
aa(lp1377
S'2:29'
p1378
aS'Hedo Turkoglu makes 21-foot two point shot (J.J. Redick assists)'
p1379
aS'51-58'
p1380
aS'\xc2\xa0'
p1381
aa(lp1382
S'2:10'
p1383
aS'\xc2\xa0'
p1384
aS'51-58'
p1385
aS'Willie Green out of bounds lost ball turnover'
p1386
aa(lp1387
S'2:10'
p1388
aS'Orlando full timeout'
p1389
aa(lp1390
S'2:10'
p1391
aS'Glen Davis enters the game for Hedo Turkoglu'
p1392
aS'51-58'
p1393
aS'\xc2\xa0'
p1394
aa(lp1395
S'2:10'
p1396
aS'Von Wafer enters the game for Ryan Anderson'
p1397
aS'51-58'
p1398
aS'\xc2\xa0'
p1399
aa(lp1400
S'1:57'
p1401
aS'Chris Duhon bad pass (Zaza Pachulia steals)'
p1402
aS'51-58'
p1403
aS'\xc2\xa0'
p1404
aa(lp1405
S'1:51'
p1406
aS'\xc2\xa0'
p1407
aS'51-58'
p1408
aS'Jannero Pargo bad pass (Dwight Howard steals)'
p1409
aa(lp1410
S'1:24'
p1411
aS'Chris Duhon makes 20-foot jumper'
p1412
aS'53-58'
p1413
aS'\xc2\xa0'
p1414
aa(lp1415
S'1:06'
p1416
aS'\xc2\xa0'
p1417
aS'53-58'
p1418
aS'Vladimir Radmanovic misses 26-foot three point jumper'
p1419
aa(lp1420
S'1:06'
p1421
aS'\xc2\xa0'
p1422
aS'53-58'
p1423
aS'Atlanta defensive team rebound'
p1424
aa(lp1425
S'0:51'
p1426
aS'Chris Duhon makes 5-foot two point shot (Dwight Howard assists)'
p1427
aS'55-58'
p1428
aS'\xc2\xa0'
p1429
aa(lp1430
S'0:39'
p1431
aS'\xc2\xa0'
p1432
aS'55-58'
p1433
aS'Josh Smith misses 20-foot jumper'
p1434
aa(lp1435
S'0:38'
p1436
aS'Dwight Howard defensive rebound'
p1437
aS'55-58'
p1438
aS'\xc2\xa0'
p1439
aa(lp1440
S'0:21'
p1441
aS'\xc2\xa0'
p1442
aS'55-58'
p1443
aS'Zaza Pachulia shooting foul (Dwight Howard draws the foul)'
p1444
aa(lp1445
S'0:21'
p1446
aS'Dwight Howard misses free throw 1 of 2'
p1447
aS'55-58'
p1448
aS'\xc2\xa0'
p1449
aa(lp1450
S'0:21'
p1451
aS'Orlando offensive team rebound'
p1452
aS'55-58'
p1453
aS'\xc2\xa0'
p1454
aa(lp1455
S'0:21'
p1456
aS'Dwight Howard misses free throw 2 of 2'
p1457
aS'55-58'
p1458
aS'\xc2\xa0'
p1459
aa(lp1460
S'0:19'
p1461
aS'\xc2\xa0'
p1462
aS'55-58'
p1463
aS'Willie Green defensive rebound'
p1464
aa(lp1465
S'0:02'
p1466
aS'Chris Duhon personal take (Jannero Pargo draws the foul)'
p1467
aS'55-58'
p1468
aS'\xc2\xa0'
p1469
aa(lp1470
S'0:02'
p1471
aS'\xc2\xa0'
p1472
aS'55-58'
p1473
aS'Willie Green bad pass (Glen Davis steals)'
p1474
aa(lp1475
S'0:00'
p1476
aS'End of the 3rd Quarter'
p1477
aa(lp1478
S'4th Quarter Summary'
p1479
aa(lp1480
a(lp1481
S'12:00'
p1482
aS'Start of the 4th Quarter'
p1483
aa(lp1484
S'11:40'
p1485
aS'\xc2\xa0'
p1486
aS'55-58'
p1487
aS'Josh Smith bad pass (J.J. Redick steals)'
p1488
aa(lp1489
S'11:34'
p1490
aS'J.J. Redick makes 25-foot three point jumper'
p1491
aS'58-58'
p1492
aS'\xc2\xa0'
p1493
aa(lp1494
S'11:12'
p1495
aS'\xc2\xa0'
p1496
aS'58-61'
p1497
aS'Willie Green makes 25-foot three point jumper (Vladimir Radmanovic assists)'
p1498
aa(lp1499
S'10:56'
p1500
aS'J.J. Redick misses 16-foot jumper'
p1501
aS'58-61'
p1502
aS'\xc2\xa0'
p1503
aa(lp1504
S'10:55'
p1505
aS'\xc2\xa0'
p1506
aS'58-61'
p1507
aS'Vladimir Radmanovic defensive rebound'
p1508
aa(lp1509
S'10:47'
p1510
aS'\xc2\xa0'
p1511
aS'58-63'
p1512
aS'Ivan Johnson makes dunk (Jeff Teague assists)'
p1513
aa(lp1514
S'10:22'
p1515
aS'Glen Davis misses 8-foot jumper'
p1516
aS'58-63'
p1517
aS'\xc2\xa0'
p1518
aa(lp1519
S'10:19'
p1520
aS'\xc2\xa0'
p1521
aS'58-63'
p1522
aS'Josh Smith defensive rebound'
p1523
aa(lp1524
S'10:03'
p1525
aS'Ryan Anderson foul (Jeff Teague draws the foul)'
p1526
aS'58-63'
p1527
aS'\xc2\xa0'
p1528
aa(lp1529
S'10:03'
p1530
aS'\xc2\xa0'
p1531
aS'58-64'
p1532
aS'Jeff Teague makes free throw 1 of 2'
p1533
aa(lp1534
S'10:03'
p1535
aS'\xc2\xa0'
p1536
aS'58-64'
p1537
aS'Jeff Teague misses free throw 2 of 2'
p1538
aa(lp1539
S'10:03'
p1540
aS'Ryan Anderson defensive rebound'
p1541
aS'58-64'
p1542
aS'\xc2\xa0'
p1543
aa(lp1544
S'9:48'
p1545
aS'Ryan Anderson misses 27-foot three point jumper'
p1546
aS'58-64'
p1547
aS'\xc2\xa0'
p1548
aa(lp1549
S'9:48'
p1550
aS'\xc2\xa0'
p1551
aS'58-64'
p1552
aS'Willie Green defensive rebound'
p1553
aa(lp1554
S'9:37'
p1555
aS'Ryan Anderson shooting foul (Josh Smith draws the foul)'
p1556
aS'58-64'
p1557
aS'\xc2\xa0'
p1558
aa(lp1559
S'9:37'
p1560
aS'\xc2\xa0'
p1561
aS'58-65'
p1562
aS'Josh Smith makes free throw 1 of 2'
p1563
aa(lp1564
S'9:37'
p1565
aS'Hedo Turkoglu enters the game for Von Wafer'
p1566
aS'58-65'
p1567
aS'\xc2\xa0'
p1568
aa(lp1569
S'9:37'
p1570
aS'\xc2\xa0'
p1571
aS'58-66'
p1572
aS'Josh Smith makes free throw 2 of 2'
p1573
aa(lp1574
S'9:12'
p1575
aS'Ishmael Smith misses 23-foot three point jumper'
p1576
aS'58-66'
p1577
aS'\xc2\xa0'
p1578
aa(lp1579
S'9:11'
p1580
aS'Ryan Anderson offensive rebound'
p1581
aS'58-66'
p1582
aS'\xc2\xa0'
p1583
aa(lp1584
S'9:11'
p1585
aS"Josh Smith blocks Ryan Anderson's 6-foot jumper"
p1586
aS'58-66'
p1587
aS'\xc2\xa0'
p1588
aa(lp1589
S'9:06'
p1590
aS'\xc2\xa0'
p1591
aS'58-66'
p1592
aS'Willie Green defensive rebound'
p1593
aa(lp1594
S'8:59'
p1595
aS'Glen Davis makes layup'
p1596
aS'60-66'
p1597
aS'\xc2\xa0'
p1598
aa(lp1599
S'8:48'
p1600
aS'\xc2\xa0'
p1601
aS'60-66'
p1602
aS'Willie Green misses 5-foot jumper'
p1603
aa(lp1604
S'8:47'
p1605
aS'J.J. Redick defensive rebound'
p1606
aS'60-66'
p1607
aS'\xc2\xa0'
p1608
aa(lp1609
S'8:37'
p1610
aS'J.J. Redick makes driving layup'
p1611
aS'62-66'
p1612
aS'\xc2\xa0'
p1613
aa(lp1614
S'8:19'
p1615
aS'\xc2\xa0'
p1616
aS'62-66'
p1617
aS'Jeff Teague misses 4-foot two point shot'
p1618
aa(lp1619
S'8:18'
p1620
aS'Hedo Turkoglu defensive rebound'
p1621
aS'62-66'
p1622
aS'\xc2\xa0'
p1623
aa(lp1624
S'8:06'
p1625
aS'Hedo Turkoglu misses 25-foot three point jumper'
p1626
aS'62-66'
p1627
aS'\xc2\xa0'
p1628
aa(lp1629
S'8:04'
p1630
aS'\xc2\xa0'
p1631
aS'62-66'
p1632
aS'Josh Smith defensive rebound'
p1633
aa(lp1634
S'7:48'
p1635
aS'\xc2\xa0'
p1636
aS'62-66'
p1637
aS'Josh Smith misses 3-foot hook shot'
p1638
aa(lp1639
S'7:47'
p1640
aS'\xc2\xa0'
p1641
aS'62-66'
p1642
aS'Atlanta offensive team rebound'
p1643
aa(lp1644
S'7:47'
p1645
aS'\xc2\xa0'
p1646
aS'62-66'
p1647
aS' Official timeout'
p1648
aa(lp1649
S'9:06'
p1650
aS'\xc2\xa0'
p1651
aS'62-66'
p1652
aS'Willie Green bad pass (Glen Davis steals)'
p1653
aa(lp1654
S'7:47'
p1655
aS'\xc2\xa0'
p1656
aS'62-66'
p1657
aS'Zaza Pachulia enters the game for Ivan Johnson'
p1658
aa(lp1659
S'7:47'
p1660
aS'Dwight Howard enters the game for Ryan Anderson'
p1661
aS'62-66'
p1662
aS'\xc2\xa0'
p1663
aa(lp1664
S'7:37'
p1665
aS'\xc2\xa0'
p1666
aS'62-66'
p1667
aS'Vladimir Radmanovic misses 26-foot three point jumper'
p1668
aa(lp1669
S'7:35'
p1670
aS'Ishmael Smith defensive rebound'
p1671
aS'62-66'
p1672
aS'\xc2\xa0'
p1673
aa(lp1674
S'7:20'
p1675
aS'Hedo Turkoglu misses 17-foot jumper'
p1676
aS'62-66'
p1677
aS'\xc2\xa0'
p1678
aa(lp1679
S'7:18'
p1680
aS'\xc2\xa0'
p1681
aS'62-66'
p1682
aS'Willie Green defensive rebound'
p1683
aa(lp1684
S'7:09'
p1685
aS'\xc2\xa0'
p1686
aS'62-66'
p1687
aS'Zaza Pachulia bad pass (Ishmael Smith steals)'
p1688
aa(lp1689
S'7:03'
p1690
aS'J.J. Redick misses 24-foot three point jumper'
p1691
aS'62-66'
p1692
aS'\xc2\xa0'
p1693
aa(lp1694
S'7:01'
p1695
aS'J.J. Redick offensive rebound'
p1696
aS'62-66'
p1697
aS'\xc2\xa0'
p1698
aa(lp1699
S'7:01'
p1700
aS'J.J. Redick makes two point shot'
p1701
aS'64-66'
p1702
aS'\xc2\xa0'
p1703
aa(lp1704
S'6:37'
p1705
aS'\xc2\xa0'
p1706
aS'64-69'
p1707
aS'Vladimir Radmanovic makes 26-foot three point jumper (Willie Green assists)'
p1708
aa(lp1709
S'6:05'
p1710
aS'Glen Davis makes layup'
p1711
aS'66-69'
p1712
aS'\xc2\xa0'
p1713
aa(lp1714
S'5:52'
p1715
aS'\xc2\xa0'
p1716
aS'66-69'
p1717
aS'Zaza Pachulia misses 14-foot jumper'
p1718
aa(lp1719
S'5:50'
p1720
aS'Ishmael Smith defensive rebound'
p1721
aS'66-69'
p1722
aS'\xc2\xa0'
p1723
aa(lp1724
S'5:45'
p1725
aS"Josh Smith blocks Glen Davis's 3-foot jumper"
p1726
aS'66-69'
p1727
aS'\xc2\xa0'
p1728
aa(lp1729
S'5:43'
p1730
aS'Ishmael Smith offensive rebound'
p1731
aS'66-69'
p1732
aS'\xc2\xa0'
p1733
aa(lp1734
S'5:33'
p1735
aS'Hedo Turkoglu misses 26-foot three point jumper'
p1736
aS'66-69'
p1737
aS'\xc2\xa0'
p1738
aa(lp1739
S'5:31'
p1740
aS'Orlando offensive team rebound'
p1741
aS'66-69'
p1742
aS'\xc2\xa0'
p1743
aa(lp1744
S'5:31'
p1745
aS'Atlanta full timeout'
p1746
aa(lp1747
S'5:31'
p1748
aS'Chris Duhon enters the game for Ishmael Smith'
p1749
aS'66-69'
p1750
aS'\xc2\xa0'
p1751
aa(lp1752
S'5:20'
p1753
aS'J.J. Redick misses jumper'
p1754
aS'66-69'
p1755
aS'\xc2\xa0'
p1756
aa(lp1757
S'5:18'
p1758
aS'Glen Davis misses tip shot'
p1759
aS'66-69'
p1760
aS'\xc2\xa0'
p1761
aa(lp1762
S'5:18'
p1763
aS'Glen Davis offensive rebound'
p1764
aS'66-69'
p1765
aS'\xc2\xa0'
p1766
aa(lp1767
S'5:16'
p1768
aS'\xc2\xa0'
p1769
aS'66-69'
p1770
aS'Josh Smith defensive rebound'
p1771
aa(lp1772
S'4:56'
p1773
aS'\xc2\xa0'
p1774
aS'66-69'
p1775
aS'Jeff Teague misses 18-foot jumper'
p1776
aa(lp1777
S'4:56'
p1778
aS'Glen Davis defensive rebound'
p1779
aS'66-69'
p1780
aS'\xc2\xa0'
p1781
aa(lp1782
S'4:41'
p1783
aS'\xc2\xa0'
p1784
aS'66-69'
p1785
aS'Zaza Pachulia personal foul (Dwight Howard draws the foul)'
p1786
aa(lp1787
S'4:31'
p1788
aS'Dwight Howard makes layup (Hedo Turkoglu assists)'
p1789
aS'68-69'
p1790
aS'\xc2\xa0'
p1791
aa(lp1792
S'4:09'
p1793
aS'\xc2\xa0'
p1794
aS'68-69'
p1795
aS'Vladimir Radmanovic discontinue dribble'
p1796
aa(lp1797
S'3:43'
p1798
aS'Glen Davis misses 22-foot jumper'
p1799
aS'68-69'
p1800
aS'\xc2\xa0'
p1801
aa(lp1802
S'3:42'
p1803
aS'\xc2\xa0'
p1804
aS'68-69'
p1805
aS'Josh Smith defensive rebound'
p1806
aa(lp1807
S'3:20'
p1808
aS'\xc2\xa0'
p1809
aS'68-69'
p1810
aS'Josh Smith misses 20-foot jumper'
p1811
aa(lp1812
S'3:18'
p1813
aS'\xc2\xa0'
p1814
aS'68-69'
p1815
aS'Zaza Pachulia offensive rebound'
p1816
aa(lp1817
S'3:15'
p1818
aS'\xc2\xa0'
p1819
aS'68-72'
p1820
aS'Willie Green makes 25-foot three point jumper (Zaza Pachulia assists)'
p1821
aa(lp1822
S'2:53'
p1823
aS'Dwight Howard misses 4-foot jumper'
p1824
aS'68-72'
p1825
aS'\xc2\xa0'
p1826
aa(lp1827
S'2:51'
p1828
aS'\xc2\xa0'
p1829
aS'68-72'
p1830
aS'Willie Green defensive rebound'
p1831
aa(lp1832
S'2:47'
p1833
aS'\xc2\xa0'
p1834
aS'68-74'
p1835
aS'Willie Green makes running jumper'
p1836
aa(lp1837
S'2:47'
p1838
aS'Orlando full timeout'
p1839
aa(lp1840
S'2:47'
p1841
aS'Ryan Anderson enters the game for Glen Davis'
p1842
aS'68-74'
p1843
aS'\xc2\xa0'
p1844
aa(lp1845
S'2:30'
p1846
aS'Chris Duhon misses 24-foot three point jumper'
p1847
aS'68-74'
p1848
aS'\xc2\xa0'
p1849
aa(lp1850
S'2:29'
p1851
aS'\xc2\xa0'
p1852
aS'68-74'
p1853
aS'Josh Smith defensive rebound'
p1854
aa(lp1855
S'2:09'
p1856
aS'\xc2\xa0'
p1857
aS'68-74'
p1858
aS'Josh Smith bad pass'
p1859
aa(lp1860
S'1:58'
p1861
aS'Hedo Turkoglu misses 25-foot three point jumper'
p1862
aS'68-74'
p1863
aS'\xc2\xa0'
p1864
aa(lp1865
S'1:57'
p1866
aS'\xc2\xa0'
p1867
aS'68-74'
p1868
aS'Zaza Pachulia defensive rebound'
p1869
aa(lp1870
S'1:36'
p1871
aS'\xc2\xa0'
p1872
aS'68-74'
p1873
aS"Dwight Howard blocks Jeff Teague's driving layup"
p1874
aa(lp1875
S'1:36'
p1876
aS'\xc2\xa0'
p1877
aS'68-74'
p1878
aS'Atlanta offensive team rebound'
p1879
aa(lp1880
S'1:31'
p1881
aS'\xc2\xa0'
p1882
aS'68-74'
p1883
aS'Josh Smith bad pass (Chris Duhon steals)'
p1884
aa(lp1885
S'1:25'
p1886
aS'Dwight Howard makes dunk (Hedo Turkoglu assists)'
p1887
aS'70-74'
p1888
aS'\xc2\xa0'
p1889
aa(lp1890
S'1:25'
p1891
aS'\xc2\xa0'
p1892
aS'70-74'
p1893
aS'Zaza Pachulia shooting foul (Dwight Howard draws the foul)'
p1894
aa(lp1895
S'1:25'
p1896
aS'Glen Davis enters the game for Ryan Anderson'
p1897
aS'70-74'
p1898
aS'\xc2\xa0'
p1899
aa(lp1900
S'1:25'
p1901
aS'Dwight Howard makes free throw 1 of 1'
p1902
aS'71-74'
p1903
aS'\xc2\xa0'
p1904
aa(lp1905
S'1:04'
p1906
aS'\xc2\xa0'
p1907
aS'71-74'
p1908
aS"Chris Duhon blocks Jeff Teague's 11-foot jumper"
p1909
aa(lp1910
S'1:01'
p1911
aS'\xc2\xa0'
p1912
aS'71-74'
p1913
aS'Zaza Pachulia offensive rebound'
p1914
aa(lp1915
S'1:00'
p1916
aS'\xc2\xa0'
p1917
aS'71-76'
p1918
aS'Willie Green makes 10-foot two point shot (Zaza Pachulia assists)'
p1919
aa(lp1920
S'1:00'
p1921
aS'Orlando full timeout'
p1922
aa(lp1923
S'1:00'
p1924
aS'Ryan Anderson enters the game for Glen Davis'
p1925
aS'71-76'
p1926
aS'\xc2\xa0'
p1927
aa(lp1928
S'0:43'
p1929
aS'Hedo Turkoglu lost ball (Vladimir Radmanovic steals)'
p1930
aS'71-76'
p1931
aS'\xc2\xa0'
p1932
aa(lp1933
S'0:43'
p1934
aS'Chris Duhon personal foul (Josh Smith draws the foul)'
p1935
aS'71-76'
p1936
aS'\xc2\xa0'
p1937
aa(lp1938
S'0:43'
p1939
aS'Glen Davis enters the game for Ryan Anderson'
p1940
aS'71-76'
p1941
aS'\xc2\xa0'
p1942
aa(lp1943
S'0:32'
p1944
aS'Glen Davis personal take (Josh Smith draws the foul)'
p1945
aS'71-76'
p1946
aS'\xc2\xa0'
p1947
aa(lp1948
S'0:32'
p1949
aS'\xc2\xa0'
p1950
aS'71-76'
p1951
aS'Josh Smith misses free throw 1 of 2'
p1952
aa(lp1953
S'0:32'
p1954
aS'\xc2\xa0'
p1955
aS'71-76'
p1956
aS'Atlanta offensive team rebound'
p1957
aa(lp1958
S'0:32'
p1959
aS'\xc2\xa0'
p1960
aS'71-77'
p1961
aS'Josh Smith makes free throw 2 of 2'
p1962
aa(lp1963
S'0:32'
p1964
aS'Orlando 20 Sec. timeout'
p1965
aa(lp1966
S'0:32'
p1967
aS'Ryan Anderson enters the game for Glen Davis'
p1968
aS'71-77'
p1969
aS'\xc2\xa0'
p1970
aa(lp1971
S'0:26'
p1972
aS'\xc2\xa0'
p1973
aS'71-77'
p1974
aS'Vladimir Radmanovic shooting foul (Hedo Turkoglu draws the foul)'
p1975
aa(lp1976
S'0:26'
p1977
aS'Hedo Turkoglu makes free throw 1 of 2'
p1978
aS'72-77'
p1979
aS'\xc2\xa0'
p1980
aa(lp1981
S'0:26'
p1982
aS'Hedo Turkoglu makes free throw 2 of 2'
p1983
aS'73-77'
p1984
aS'\xc2\xa0'
p1985
aa(lp1986
S'0:26'
p1987
aS'Atlanta full timeout'
p1988
aa(lp1989
S'0:26'
p1990
aS'Glen Davis enters the game for Ryan Anderson'
p1991
aS'73-77'
p1992
aS'\xc2\xa0'
p1993
aa(lp1994
S'0:26'
p1995
aS'\xc2\xa0'
p1996
aS'73-77'
p1997
aS'Kirk Hinrich enters the game for Zaza Pachulia'
p1998
aa(lp1999
S'0:25'
p2000
aS'Chris Duhon personal take (Jeff Teague draws the foul)'
p2001
aS'73-77'
p2002
aS'\xc2\xa0'
p2003
aa(lp2004
S'0:25'
p2005
aS'\xc2\xa0'
p2006
aS'73-77'
p2007
aS'Jeff Teague misses free throw 1 of 2'
p2008
aa(lp2009
S'0:25'
p2010
aS'\xc2\xa0'
p2011
aS'73-77'
p2012
aS'Atlanta offensive team rebound'
p2013
aa(lp2014
S'0:25'
p2015
aS'\xc2\xa0'
p2016
aS'73-77'
p2017
aS'Zaza Pachulia enters the game for Kirk Hinrich'
p2018
aa(lp2019
S'0:25'
p2020
aS'\xc2\xa0'
p2021
aS'73-78'
p2022
aS'Jeff Teague makes free throw 2 of 2'
p2023
aa(lp2024
S'0:25'
p2025
aS'Orlando 20 Sec. timeout'
p2026
aa(lp2027
S'0:25'
p2028
aS'Ryan Anderson enters the game for Glen Davis'
p2029
aS'73-78'
p2030
aS'\xc2\xa0'
p2031
aa(lp2032
S'0:25'
p2033
aS'Von Wafer enters the game for Chris Duhon'
p2034
aS'73-78'
p2035
aS'\xc2\xa0'
p2036
aa(lp2037
S'0:21'
p2038
aS'Ryan Anderson misses 26-foot three point jumper'
p2039
aS'73-78'
p2040
aS'\xc2\xa0'
p2041
aa(lp2042
S'0:20'
p2043
aS'\xc2\xa0'
p2044
aS'73-78'
p2045
aS'Zaza Pachulia defensive rebound'
p2046
aa(lp2047
S'0:20'
p2048
aS'Hedo Turkoglu personal take (Zaza Pachulia draws the foul)'
p2049
aS'73-78'
p2050
aS'\xc2\xa0'
p2051
aa(lp2052
S'0:20'
p2053
aS'\xc2\xa0'
p2054
aS'73-79'
p2055
aS'Zaza Pachulia makes free throw 1 of 2'
p2056
aa(lp2057
S'0:20'
p2058
aS'\xc2\xa0'
p2059
aS'73-80'
p2060
aS'Zaza Pachulia makes free throw 2 of 2'
p2061
aa(lp2062
S'0:15'
p2063
aS'\xc2\xa0'
p2064
aS'73-80'
p2065
aS'Willie Green shooting foul (J.J. Redick draws the foul)'
p2066
aa(lp2067
S'0:15'
p2068
aS'J.J. Redick misses free throw 1 of 2'
p2069
aS'73-80'
p2070
aS'\xc2\xa0'
p2071
aa(lp2072
S'0:15'
p2073
aS'Orlando offensive team rebound'
p2074
aS'73-80'
p2075
aS'\xc2\xa0'
p2076
aa(lp2077
S'0:15'
p2078
aS'J.J. Redick makes free throw 2 of 2'
p2079
aS'74-80'
p2080
aS'\xc2\xa0'
p2081
aa(lp2082
S'0:15'
p2083
aS'Atlanta 20 Sec. timeout'
p2084
aa(lp2085
S'0:15'
p2086
aS'\xc2\xa0'
p2087
aS'74-80'
p2088
aS'Kirk Hinrich enters the game for Zaza Pachulia'
p2089
aa(lp2090
S'0:15'
p2091
aS'Ishmael Smith enters the game for Ryan Anderson'
p2092
aS'74-80'
p2093
aS'\xc2\xa0'
p2094
aa(lp2095
S'0:15'
p2096
aS'Glen Davis enters the game for Dwight Howard'
p2097
aS'74-80'
p2098
aS'\xc2\xa0'
p2099
aa(lp2100
S'0:14'
p2101
aS'J.J. Redick personal take (Vladimir Radmanovic draws the foul)'
p2102
aS'74-80'
p2103
aS'\xc2\xa0'
p2104
aa(lp2105
S'0:14'
p2106
aS'\xc2\xa0'
p2107
aS'74-81'
p2108
aS'Vladimir Radmanovic makes free throw 1 of 2'
p2109
aa(lp2110
S'0:14'
p2111
aS'Dwight Howard enters the game for Glen Davis'
p2112
aS'74-81'
p2113
aS'\xc2\xa0'
p2114
aa(lp2115
S'0:14'
p2116
aS'Ryan Anderson enters the game for Ishmael Smith'
p2117
aS'74-81'
p2118
aS'\xc2\xa0'
p2119
aa(lp2120
S'0:14'
p2121
aS'\xc2\xa0'
p2122
aS'74-82'
p2123
aS'Vladimir Radmanovic makes free throw 2 of 2'
p2124
aa(lp2125
S'0:07'
p2126
aS'Hedo Turkoglu makes driving layup'
p2127
aS'76-82'
p2128
aS'\xc2\xa0'
p2129
aa(lp2130
S'0:06'
p2131
aS'Hedo Turkoglu personal take (Jeff Teague draws the foul)'
p2132
aS'76-82'
p2133
aS'\xc2\xa0'
p2134
aa(lp2135
S'0:06'
p2136
aS'\xc2\xa0'
p2137
aS'76-82'
p2138
aS'Jeff Teague misses free throw 1 of 2'
p2139
aa(lp2140
S'0:06'
p2141
aS'\xc2\xa0'
p2142
aS'76-82'
p2143
aS'Atlanta offensive team rebound'
p2144
aa(lp2145
S'0:06'
p2146
aS'\xc2\xa0'
p2147
aS'76-83'
p2148
aS'Jeff Teague makes free throw 2 of 2'
p2149
aa(lp2150
S'0:00'
p2151
aS'Von Wafer makes two point shot (Hedo Turkoglu assists)'
p2152
aS'78-83'
p2153
aS'\xc2\xa0'
p2154
aa(lp2155
S'0:00'
p2156
aS'End of the 4th Quarter'
p2157
aa(lp2158
S'0:00'
p2159
aS'End Game'
p2160
aasS'head'
p2161
(lp2162
S'TIME'
p2163
aS'ORLANDO'
p2164
aS'SCORE'
p2165
aS'ATLANTA'
p2166
assS'320223025'
p2167
(dp2168
g3
(lp2169
(lp2170
S'12:00'
p2171
aS'Start of the 1st Quarter'
p2172
aa(lp2173
S'12:00'
p2174
aS'Jumpball: Andrew Bynum vs. Serge Ibaka (Derek Fisher gains possession)'
p2175
aS'0-0'
p2176
aS'\xc2\xa0'
p2177
aa(lp2178
S'11:38'
p2179
aS"Kendrick Perkins blocks Andrew Bynum's 4-foot jumper"
p2180
aS'0-0'
p2181
aS'\xc2\xa0'
p2182
aa(lp2183
S'11:37'
p2184
aS'\xc2\xa0'
p2185
aS'0-0'
p2186
aS'Kendrick Perkins defensive rebound'
p2187
aa(lp2188
S'11:23'
p2189
aS'\xc2\xa0'
p2190
aS'0-2'
p2191
aS'Russell Westbrook makes 16-foot jumper'
p2192
aa(lp2193
S'11:04'
p2194
aS"Kendrick Perkins blocks Kobe Bryant's layup"
p2195
aS'0-2'
p2196
aS'\xc2\xa0'
p2197
aa(lp2198
S'11:02'
p2199
aS'\xc2\xa0'
p2200
aS'0-2'
p2201
aS'Kendrick Perkins defensive rebound'
p2202
aa(lp2203
S'10:48'
p2204
aS'\xc2\xa0'
p2205
aS'0-2'
p2206
aS'Kevin Durant misses 24-foot three point jumper'
p2207
aa(lp2208
S'10:47'
p2209
aS'Kobe Bryant defensive rebound'
p2210
aS'0-2'
p2211
aS'\xc2\xa0'
p2212
aa(lp2213
S'10:30'
p2214
aS'Andrew Bynum misses 9-foot two point shot'
p2215
aS'0-2'
p2216
aS'\xc2\xa0'
p2217
aa(lp2218
S'10:30'
p2219
aS'\xc2\xa0'
p2220
aS'0-2'
p2221
aS'Serge Ibaka defensive rebound'
p2222
aa(lp2223
S'10:19'
p2224
aS'\xc2\xa0'
p2225
aS'0-2'
p2226
aS'Russell Westbrook misses 7-foot running jumper'
p2227
aa(lp2228
S'10:18'
p2229
aS'\xc2\xa0'
p2230
aS'0-2'
p2231
aS'Serge Ibaka offensive rebound'
p2232
aa(lp2233
S'10:18'
p2234
aS'\xc2\xa0'
p2235
aS'0-4'
p2236
aS'Serge Ibaka makes two point shot'
p2237
aa(lp2238
S'9:59'
p2239
aS'Pau Gasol misses 17-foot jumper'
p2240
aS'0-4'
p2241
aS'\xc2\xa0'
p2242
aa(lp2243
S'9:57'
p2244
aS'Metta World Peace offensive rebound'
p2245
aS'0-4'
p2246
aS'\xc2\xa0'
p2247
aa(lp2248
S'9:55'
p2249
aS'Metta World Peace misses 25-foot three point jumper'
p2250
aS'0-4'
p2251
aS'\xc2\xa0'
p2252
aa(lp2253
S'9:53'
p2254
aS'\xc2\xa0'
p2255
aS'0-4'
p2256
aS'Daequan Cook defensive rebound'
p2257
aa(lp2258
S'9:45'
p2259
aS'\xc2\xa0'
p2260
aS'0-4'
p2261
aS'Kevin Durant out of bounds lost ball turnover'
p2262
aa(lp2263
S'9:33'
p2264
aS'Kobe Bryant makes 12-foot jumper (Metta World Peace assists)'
p2265
aS'2-4'
p2266
aS'\xc2\xa0'
p2267
aa(lp2268
S'9:14'
p2269
aS'\xc2\xa0'
p2270
aS'2-4'
p2271
aS'Kevin Durant misses 25-foot three point jumper'
p2272
aa(lp2273
S'9:12'
p2274
aS'Andrew Bynum defensive rebound'
p2275
aS'2-4'
p2276
aS'\xc2\xa0'
p2277
aa(lp2278
S'9:03'
p2279
aS'Kobe Bryant misses jumper'
p2280
aS'2-4'
p2281
aS'\xc2\xa0'
p2282
aa(lp2283
S'9:02'
p2284
aS'\xc2\xa0'
p2285
aS'2-4'
p2286
aS'Serge Ibaka defensive rebound'
p2287
aa(lp2288
S'8:55'
p2289
aS'\xc2\xa0'
p2290
aS'2-4'
p2291
aS'Russell Westbrook misses driving layup'
p2292
aa(lp2293
S'8:52'
p2294
aS'Kobe Bryant defensive rebound'
p2295
aS'2-4'
p2296
aS'\xc2\xa0'
p2297
aa(lp2298
S'8:45'
p2299
aS'Metta World Peace makes three point jumper (Kobe Bryant assists)'
p2300
aS'5-4'
p2301
aS'\xc2\xa0'
p2302
aa(lp2303
S'8:25'
p2304
aS'\xc2\xa0'
p2305
aS'5-6'
p2306
aS'Kevin Durant makes driving dunk'
p2307
aa(lp2308
S'8:07'
p2309
aS"Daequan Cook blocks Kobe Bryant's 11-foot two point shot"
p2310
aS'5-6'
p2311
aS'\xc2\xa0'
p2312
aa(lp2313
S'8:06'
p2314
aS'\xc2\xa0'
p2315
aS'5-6'
p2316
aS'Serge Ibaka defensive rebound'
p2317
aa(lp2318
S'7:58'
p2319
aS'\xc2\xa0'
p2320
aS'5-9'
p2321
aS'Kevin Durant makes 24-foot three point jumper'
p2322
aa(lp2323
S'7:37'
p2324
aS'Andrew Bynum makes 9-foot jumper (Metta World Peace assists)'
p2325
aS'7-9'
p2326
aS'\xc2\xa0'
p2327
aa(lp2328
S'7:20'
p2329
aS'\xc2\xa0'
p2330
aS'7-11'
p2331
aS'Serge Ibaka makes 16-foot jumper (Russell Westbrook assists)'
p2332
aa(lp2333
S'7:05'
p2334
aS'Pau Gasol makes layup (Metta World Peace assists)'
p2335
aS'9-11'
p2336
aS'\xc2\xa0'
p2337
aa(lp2338
S'7:05'
p2339
aS'\xc2\xa0'
p2340
aS'9-11'
p2341
aS'Serge Ibaka defensive goaltending'
p2342
aa(lp2343
S'6:48'
p2344
aS'\xc2\xa0'
p2345
aS'9-11'
p2346
aS'Serge Ibaka misses 10-foot jumper'
p2347
aa(lp2348
S'6:48'
p2349
aS'Pau Gasol defensive rebound'
p2350
aS'9-11'
p2351
aS'\xc2\xa0'
p2352
aa(lp2353
S'6:41'
p2354
aS'Pau Gasol bad pass (Kevin Durant steals)'
p2355
aS'9-11'
p2356
aS'\xc2\xa0'
p2357
aa(lp2358
S'6:39'
p2359
aS'\xc2\xa0'
p2360
aS'9-11'
p2361
aS'Kevin Durant out of bounds lost ball turnover'
p2362
aa(lp2363
S'6:31'
p2364
aS'\xc2\xa0'
p2365
aS'9-11'
p2366
aS'Daequan Cook personal foul (Kobe Bryant draws the foul)'
p2367
aa(lp2368
S'6:24'
p2369
aS"Serge Ibaka blocks Kobe Bryant's two point shot"
p2370
aS'9-11'
p2371
aS'\xc2\xa0'
p2372
aa(lp2373
S'6:22'
p2374
aS'\xc2\xa0'
p2375
aS'9-11'
p2376
aS'Daequan Cook defensive rebound'
p2377
aa(lp2378
S'6:07'
p2379
aS'\xc2\xa0'
p2380
aS'9-11'
p2381
aS'Daequan Cook misses 23-foot three point jumper'
p2382
aa(lp2383
S'6:07'
p2384
aS'Andrew Bynum defensive rebound'
p2385
aS'9-11'
p2386
aS'\xc2\xa0'
p2387
aa(lp2388
S'5:52'
p2389
aS'Pau Gasol misses 4-foot two point shot'
p2390
aS'9-11'
p2391
aS'\xc2\xa0'
p2392
aa(lp2393
S'5:50'
p2394
aS'\xc2\xa0'
p2395
aS'9-11'
p2396
aS'Kendrick Perkins defensive rebound'
p2397
aa(lp2398
S'5:45'
p2399
aS'\xc2\xa0'
p2400
aS'9-11'
p2401
aS'Russell Westbrook misses 19-foot jumper'
p2402
aa(lp2403
S'5:43'
p2404
aS'\xc2\xa0'
p2405
aS'9-11'
p2406
aS'Kendrick Perkins offensive rebound'
p2407
aa(lp2408
S'5:41'
p2409
aS'\xc2\xa0'
p2410
aS'9-11'
p2411
aS"Andrew Bynum blocks Serge Ibaka's 3-foot two point shot"
p2412
aa(lp2413
S'5:39'
p2414
aS'\xc2\xa0'
p2415
aS'9-11'
p2416
aS'Daequan Cook offensive rebound'
p2417
aa(lp2418
S'5:22'
p2419
aS'\xc2\xa0'
p2420
aS'9-11'
p2421
aS'Kevin Durant misses 10-foot two point shot'
p2422
aa(lp2423
S'5:20'
p2424
aS'Andrew Bynum defensive rebound'
p2425
aS'9-11'
p2426
aS'\xc2\xa0'
p2427
aa(lp2428
S'5:09'
p2429
aS'Pau Gasol bad pass (Daequan Cook steals)'
p2430
aS'9-11'
p2431
aS'\xc2\xa0'
p2432
aa(lp2433
S'4:56'
p2434
aS'\xc2\xa0'
p2435
aS'9-11'
p2436
aS'Serge Ibaka misses 19-foot jumper'
p2437
aa(lp2438
S'4:54'
p2439
aS'Andrew Bynum defensive rebound'
p2440
aS'9-11'
p2441
aS'\xc2\xa0'
p2442
aa(lp2443
S'4:37'
p2444
aS'Pau Gasol makes 19-foot jumper (Derek Fisher assists)'
p2445
aS'11-11'
p2446
aS'\xc2\xa0'
p2447
aa(lp2448
S'4:13'
p2449
aS'\xc2\xa0'
p2450
aS'11-11'
p2451
aS'Russell Westbrook bad pass (Kobe Bryant steals)'
p2452
aa(lp2453
S'4:09'
p2454
aS'Andrew Bynum makes dunk (Metta World Peace assists)'
p2455
aS'13-11'
p2456
aS'\xc2\xa0'
p2457
aa(lp2458
S'3:59'
p2459
aS'Oklahoma City full timeout'
p2460
aa(lp2461
S'3:59'
p2462
aS'\xc2\xa0'
p2463
aS'13-11'
p2464
aS'Nazr Mohammed enters the game for Serge Ibaka'
p2465
aa(lp2466
S'3:59'
p2467
aS'\xc2\xa0'
p2468
aS'13-11'
p2469
aS'James Harden enters the game for Daequan Cook'
p2470
aa(lp2471
S'3:59'
p2472
aS'Troy Murphy enters the game for Metta World Peace'
p2473
aS'13-11'
p2474
aS'\xc2\xa0'
p2475
aa(lp2476
S'3:59'
p2477
aS'Matt Barnes enters the game for Andrew Bynum'
p2478
aS'13-11'
p2479
aS'\xc2\xa0'
p2480
aa(lp2481
S'3:46'
p2482
aS'\xc2\xa0'
p2483
aS'13-11'
p2484
aS'Russell Westbrook misses 16-foot jumper'
p2485
aa(lp2486
S'3:45'
p2487
aS'Pau Gasol defensive rebound'
p2488
aS'13-11'
p2489
aS'\xc2\xa0'
p2490
aa(lp2491
S'3:29'
p2492
aS'Kobe Bryant misses 17-foot two point shot'
p2493
aS'13-11'
p2494
aS'\xc2\xa0'
p2495
aa(lp2496
S'3:28'
p2497
aS'\xc2\xa0'
p2498
aS'13-11'
p2499
aS'Nazr Mohammed defensive rebound'
p2500
aa(lp2501
S'3:16'
p2502
aS'\xc2\xa0'
p2503
aS'13-11'
p2504
aS'Nazr Mohammed bad pass'
p2505
aa(lp2506
S'3:16'
p2507
aS'Steve Blake enters the game for Derek Fisher'
p2508
aS'13-11'
p2509
aS'\xc2\xa0'
p2510
aa(lp2511
S'3:03'
p2512
aS'Kobe Bryant makes two point shot (Pau Gasol assists)'
p2513
aS'15-11'
p2514
aS'\xc2\xa0'
p2515
aa(lp2516
S'2:47'
p2517
aS'Matt Barnes shooting foul (Kevin Durant draws the foul)'
p2518
aS'15-11'
p2519
aS'\xc2\xa0'
p2520
aa(lp2521
S'2:47'
p2522
aS'Los Angeles full timeout'
p2523
aa(lp2524
S'2:47'
p2525
aS'\xc2\xa0'
p2526
aS'15-11'
p2527
aS'Cole Aldrich enters the game for Kendrick Perkins'
p2528
aa(lp2529
S'2:47'
p2530
aS'\xc2\xa0'
p2531
aS'15-12'
p2532
aS'Kevin Durant makes free throw 1 of 2'
p2533
aa(lp2534
S'2:47'
p2535
aS'\xc2\xa0'
p2536
aS'15-13'
p2537
aS'Kevin Durant makes free throw 2 of 2'
p2538
aa(lp2539
S'2:30'
p2540
aS'\xc2\xa0'
p2541
aS'15-13'
p2542
aS'Cole Aldrich personal foul (Kobe Bryant draws the foul)'
p2543
aa(lp2544
S'2:18'
p2545
aS'\xc2\xa0'
p2546
aS'15-13'
p2547
aS'James Harden shooting foul (Kobe Bryant draws the foul)'
p2548
aa(lp2549
S'2:18'
p2550
aS'Kobe Bryant makes free throw 1 of 2'
p2551
aS'16-13'
p2552
aS'\xc2\xa0'
p2553
aa(lp2554
S'2:18'
p2555
aS'Kobe Bryant makes free throw 2 of 2'
p2556
aS'17-13'
p2557
aS'\xc2\xa0'
p2558
aa(lp2559
S'2:02'
p2560
aS'\xc2\xa0'
p2561
aS'17-15'
p2562
aS'Kevin Durant makes 9-foot two point shot'
p2563
aa(lp2564
S'1:40'
p2565
aS'Troy Murphy makes 18-foot jumper (Pau Gasol assists)'
p2566
aS'19-15'
p2567
aS'\xc2\xa0'
p2568
aa(lp2569
S'1:28'
p2570
aS'\xc2\xa0'
p2571
aS'19-15'
p2572
aS'James Harden misses 24-foot three point jumper'
p2573
aa(lp2574
S'1:27'
p2575
aS'Pau Gasol defensive rebound'
p2576
aS'19-15'
p2577
aS'\xc2\xa0'
p2578
aa(lp2579
S'1:13'
p2580
aS'Kobe Bryant makes 14-foot jumper'
p2581
aS'21-15'
p2582
aS'\xc2\xa0'
p2583
aa(lp2584
S'0:49'
p2585
aS'\xc2\xa0'
p2586
aS'21-18'
p2587
aS'Russell Westbrook makes 24-foot three point jumper (James Harden assists)'
p2588
aa(lp2589
S'0:28'
p2590
aS'Kobe Bryant makes 22-foot jumper'
p2591
aS'23-18'
p2592
aS'\xc2\xa0'
p2593
aa(lp2594
S'0:10'
p2595
aS'Troy Murphy shooting foul (Russell Westbrook draws the foul)'
p2596
aS'23-18'
p2597
aS'\xc2\xa0'
p2598
aa(lp2599
S'0:10'
p2600
aS'\xc2\xa0'
p2601
aS'23-19'
p2602
aS'Russell Westbrook makes free throw 1 of 2'
p2603
aa(lp2604
S'0:10'
p2605
aS'\xc2\xa0'
p2606
aS'23-19'
p2607
aS'Royal Ivey enters the game for Kevin Durant'
p2608
aa(lp2609
S'0:10'
p2610
aS'\xc2\xa0'
p2611
aS'23-19'
p2612
aS'Russell Westbrook misses free throw 2 of 2'
p2613
aa(lp2614
S'0:09'
p2615
aS'Matt Barnes defensive rebound'
p2616
aS'23-19'
p2617
aS'\xc2\xa0'
p2618
aa(lp2619
S'0:00'
p2620
aS'End of the 1st Quarter'
p2621
aa(lp2622
S'2nd Quarter Summary'
p2623
aa(lp2624
a(lp2625
S'12:00'
p2626
aS'Start of the 2nd Quarter'
p2627
aa(lp2628
S'11:47'
p2629
aS'\xc2\xa0'
p2630
aS'23-19'
p2631
aS'Reggie Jackson offensive foul (Steve Blake draws the foul)'
p2632
aa(lp2633
S'11:47'
p2634
aS'\xc2\xa0'
p2635
aS'23-19'
p2636
aS'Reggie Jackson turnover'
p2637
aa(lp2638
S'11:25'
p2639
aS'Steve Blake misses two point shot'
p2640
aS'23-19'
p2641
aS'\xc2\xa0'
p2642
aa(lp2643
S'11:23'
p2644
aS'\xc2\xa0'
p2645
aS'23-19'
p2646
aS'Royal Ivey defensive rebound'
p2647
aa(lp2648
S'11:12'
p2649
aS'\xc2\xa0'
p2650
aS'23-19'
p2651
aS'Nazr Mohammed misses 14-foot jumper'
p2652
aa(lp2653
S'11:11'
p2654
aS'Andrew Goudelock defensive rebound'
p2655
aS'23-19'
p2656
aS'\xc2\xa0'
p2657
aa(lp2658
S'11:00'
p2659
aS'Steve Blake makes 16-foot jumper (Troy Murphy assists)'
p2660
aS'25-19'
p2661
aS'\xc2\xa0'
p2662
aa(lp2663
S'10:44'
p2664
aS'\xc2\xa0'
p2665
aS'25-21'
p2666
aS'Reggie Jackson makes driving dunk'
p2667
aa(lp2668
S'10:21'
p2669
aS'Troy Murphy misses jumper'
p2670
aS'25-21'
p2671
aS'\xc2\xa0'
p2672
aa(lp2673
S'10:18'
p2674
aS'\xc2\xa0'
p2675
aS'25-21'
p2676
aS'Nazr Mohammed defensive rebound'
p2677
aa(lp2678
S'10:10'
p2679
aS'\xc2\xa0'
p2680
aS'25-23'
p2681
aS'Cole Aldrich makes layup (James Harden assists)'
p2682
aa(lp2683
S'9:52'
p2684
aS'\xc2\xa0'
p2685
aS'25-23'
p2686
aS'Nazr Mohammed personal foul (Andrew Bynum draws the foul)'
p2687
aa(lp2688
S'9:41'
p2689
aS'Andrew Bynum misses 10-foot two point shot'
p2690
aS'25-23'
p2691
aS'\xc2\xa0'
p2692
aa(lp2693
S'9:40'
p2694
aS'\xc2\xa0'
p2695
aS'25-23'
p2696
aS'Cole Aldrich defensive rebound'
p2697
aa(lp2698
S'9:26'
p2699
aS'\xc2\xa0'
p2700
aS'25-23'
p2701
aS"Andrew Bynum blocks James Harden's 6-foot two point shot"
p2702
aa(lp2703
S'9:26'
p2704
aS'Matt Barnes defensive rebound'
p2705
aS'25-23'
p2706
aS'\xc2\xa0'
p2707
aa(lp2708
S'9:19'
p2709
aS'Steve Blake makes 16-foot jumper'
p2710
aS'27-23'
p2711
aS'\xc2\xa0'
p2712
aa(lp2713
S'9:03'
p2714
aS'\xc2\xa0'
p2715
aS'27-23'
p2716
aS'Reggie Jackson misses 15-foot jumper'
p2717
aa(lp2718
S'9:03'
p2719
aS'Andrew Bynum defensive rebound'
p2720
aS'27-23'
p2721
aS'\xc2\xa0'
p2722
aa(lp2723
S'8:49'
p2724
aS'Andrew Goudelock misses 24-foot three point jumper'
p2725
aS'27-23'
p2726
aS'\xc2\xa0'
p2727
aa(lp2728
S'8:48'
p2729
aS'Andrew Bynum offensive rebound'
p2730
aS'27-23'
p2731
aS'\xc2\xa0'
p2732
aa(lp2733
S'8:47'
p2734
aS'\xc2\xa0'
p2735
aS'27-23'
p2736
aS'Nazr Mohammed personal foul (Andrew Bynum draws the foul)'
p2737
aa(lp2738
S'8:47'
p2739
aS'\xc2\xa0'
p2740
aS'27-23'
p2741
aS'Kevin Durant enters the game for Cole Aldrich'
p2742
aa(lp2743
S'8:47'
p2744
aS'Pau Gasol enters the game for Troy Murphy'
p2745
aS'27-23'
p2746
aS'\xc2\xa0'
p2747
aa(lp2748
S'8:41'
p2749
aS'Andrew Goudelock misses 22-foot jumper'
p2750
aS'27-23'
p2751
aS'\xc2\xa0'
p2752
aa(lp2753
S'8:40'
p2754
aS'\xc2\xa0'
p2755
aS'27-23'
p2756
aS'James Harden defensive rebound'
p2757
aa(lp2758
S'8:25'
p2759
aS'\xc2\xa0'
p2760
aS'27-23'
p2761
aS'Kevin Durant misses 25-foot three point jumper'
p2762
aa(lp2763
S'8:25'
p2764
aS'Steve Blake defensive rebound'
p2765
aS'27-23'
p2766
aS'\xc2\xa0'
p2767
aa(lp2768
S'8:15'
p2769
aS'Andrew Bynum bad pass (Kevin Durant steals)'
p2770
aS'27-23'
p2771
aS'\xc2\xa0'
p2772
aa(lp2773
S'8:10'
p2774
aS'\xc2\xa0'
p2775
aS'27-25'
p2776
aS'Reggie Jackson makes driving layup'
p2777
aa(lp2778
S'7:48'
p2779
aS'\xc2\xa0'
p2780
aS'27-25'
p2781
aS'Kevin Durant shooting foul (Pau Gasol draws the foul)'
p2782
aa(lp2783
S'7:48'
p2784
aS'Pau Gasol makes free throw 1 of 2'
p2785
aS'28-25'
p2786
aS'\xc2\xa0'
p2787
aa(lp2788
S'7:48'
p2789
aS'Pau Gasol makes free throw 2 of 2'
p2790
aS'29-25'
p2791
aS'\xc2\xa0'
p2792
aa(lp2793
S'7:35'
p2794
aS'\xc2\xa0'
p2795
aS'29-25'
p2796
aS'James Harden bad pass (Matt Barnes steals)'
p2797
aa(lp2798
S'7:28'
p2799
aS'Andrew Goudelock misses 24-foot three point jumper'
p2800
aS'29-25'
p2801
aS'\xc2\xa0'
p2802
aa(lp2803
S'7:26'
p2804
aS'\xc2\xa0'
p2805
aS'29-25'
p2806
aS'James Harden defensive rebound'
p2807
aa(lp2808
S'7:22'
p2809
aS'\xc2\xa0'
p2810
aS'29-27'
p2811
aS'James Harden makes layup'
p2812
aa(lp2813
S'7:22'
p2814
aS'Andrew Goudelock shooting foul (James Harden draws the foul)'
p2815
aS'29-27'
p2816
aS'\xc2\xa0'
p2817
aa(lp2818
S'7:22'
p2819
aS'Kobe Bryant enters the game for Andrew Goudelock'
p2820
aS'29-27'
p2821
aS'\xc2\xa0'
p2822
aa(lp2823
S'7:22'
p2824
aS'\xc2\xa0'
p2825
aS'29-27'
p2826
aS'Russell Westbrook enters the game for Reggie Jackson'
p2827
aa(lp2828
S'7:22'
p2829
aS'\xc2\xa0'
p2830
aS'29-28'
p2831
aS'James Harden makes free throw 1 of 1'
p2832
aa(lp2833
S'7:09'
p2834
aS'Pau Gasol makes layup (Matt Barnes assists)'
p2835
aS'31-28'
p2836
aS'\xc2\xa0'
p2837
aa(lp2838
S'6:48'
p2839
aS'\xc2\xa0'
p2840
aS'31-30'
p2841
aS'Kevin Durant makes driving layup'
p2842
aa(lp2843
S'6:24'
p2844
aS'Pau Gasol makes 11-foot jumper'
p2845
aS'33-30'
p2846
aS'\xc2\xa0'
p2847
aa(lp2848
S'6:01'
p2849
aS'Kobe Bryant shooting foul (Kevin Durant draws the foul)'
p2850
aS'33-30'
p2851
aS'\xc2\xa0'
p2852
aa(lp2853
S'6:01'
p2854
aS'\xc2\xa0'
p2855
aS'33-31'
p2856
aS'Kevin Durant makes free throw 1 of 2'
p2857
aa(lp2858
S'6:01'
p2859
aS'\xc2\xa0'
p2860
aS'33-31'
p2861
aS'Serge Ibaka enters the game for Royal Ivey'
p2862
aa(lp2863
S'6:01'
p2864
aS'\xc2\xa0'
p2865
aS'33-31'
p2866
aS'Kendrick Perkins enters the game for Nazr Mohammed'
p2867
aa(lp2868
S'6:01'
p2869
aS'Metta World Peace enters the game for Matt Barnes'
p2870
aS'33-31'
p2871
aS'\xc2\xa0'
p2872
aa(lp2873
S'6:01'
p2874
aS'\xc2\xa0'
p2875
aS'33-32'
p2876
aS'Kevin Durant makes free throw 2 of 2'
p2877
aa(lp2878
S'5:39'
p2879
aS"James Harden blocks Kobe Bryant's 24-foot three point jumper"
p2880
aS'33-32'
p2881
aS'\xc2\xa0'
p2882
aa(lp2883
S'5:37'
p2884
aS'\xc2\xa0'
p2885
aS'33-32'
p2886
aS'Kevin Durant defensive rebound'
p2887
aa(lp2888
S'5:35'
p2889
aS'\xc2\xa0'
p2890
aS'33-34'
p2891
aS'James Harden makes dunk (Kevin Durant assists)'
p2892
aa(lp2893
S'5:33'
p2894
aS'Los Angeles full timeout'
p2895
aa(lp2896
S'5:33'
p2897
aS'Troy Murphy enters the game for Pau Gasol'
p2898
aS'33-34'
p2899
aS'\xc2\xa0'
p2900
aa(lp2901
S'5:33'
p2902
aS'Derek Fisher enters the game for Steve Blake'
p2903
aS'33-34'
p2904
aS'\xc2\xa0'
p2905
aa(lp2906
S'5:18'
p2907
aS'Kobe Bryant misses 16-foot jumper'
p2908
aS'33-34'
p2909
aS'\xc2\xa0'
p2910
aa(lp2911
S'5:18'
p2912
aS'\xc2\xa0'
p2913
aS'33-34'
p2914
aS'Serge Ibaka defensive rebound'
p2915
aa(lp2916
S'5:18'
p2917
aS'Metta World Peace personal foul (Serge Ibaka draws the foul)'
p2918
aS'33-34'
p2919
aS'\xc2\xa0'
p2920
aa(lp2921
S'5:09'
p2922
aS'\xc2\xa0'
p2923
aS'33-34'
p2924
aS'Russell Westbrook out of bounds lost ball turnover'
p2925
aa(lp2926
S'4:56'
p2927
aS'Derek Fisher misses 20-foot jumper'
p2928
aS'33-34'
p2929
aS'\xc2\xa0'
p2930
aa(lp2931
S'4:54'
p2932
aS'\xc2\xa0'
p2933
aS'33-34'
p2934
aS'James Harden defensive rebound'
p2935
aa(lp2936
S'4:39'
p2937
aS'\xc2\xa0'
p2938
aS'33-34'
p2939
aS'Kendrick Perkins misses 11-foot jumper'
p2940
aa(lp2941
S'4:39'
p2942
aS'Kobe Bryant defensive rebound'
p2943
aS'33-34'
p2944
aS'\xc2\xa0'
p2945
aa(lp2946
S'4:18'
p2947
aS'Andrew Bynum misses 8-foot two point shot'
p2948
aS'33-34'
p2949
aS'\xc2\xa0'
p2950
aa(lp2951
S'4:18'
p2952
aS'\xc2\xa0'
p2953
aS'33-34'
p2954
aS'Serge Ibaka defensive rebound'
p2955
aa(lp2956
S'4:09'
p2957
aS'\xc2\xa0'
p2958
aS'33-34'
p2959
aS'Russell Westbrook misses 25-foot three point jumper'
p2960
aa(lp2961
S'4:09'
p2962
aS'Troy Murphy defensive rebound'
p2963
aS'33-34'
p2964
aS'\xc2\xa0'
p2965
aa(lp2966
S'3:47'
p2967
aS'Kobe Bryant misses 23-foot two point shot'
p2968
aS'33-34'
p2969
aS'\xc2\xa0'
p2970
aa(lp2971
S'3:47'
p2972
aS'\xc2\xa0'
p2973
aS'33-34'
p2974
aS'Russell Westbrook defensive rebound'
p2975
aa(lp2976
S'3:42'
p2977
aS'\xc2\xa0'
p2978
aS'33-36'
p2979
aS'Kevin Durant makes dunk (James Harden assists)'
p2980
aa(lp2981
S'3:17'
p2982
aS'\xc2\xa0'
p2983
aS'33-36'
p2984
aS'Kendrick Perkins shooting foul (Andrew Bynum draws the foul)'
p2985
aa(lp2986
S'3:17'
p2987
aS'Andrew Bynum makes free throw 1 of 2'
p2988
aS'34-36'
p2989
aS'\xc2\xa0'
p2990
aa(lp2991
S'3:17'
p2992
aS'Pau Gasol enters the game for Troy Murphy'
p2993
aS'34-36'
p2994
aS'\xc2\xa0'
p2995
aa(lp2996
S'3:17'
p2997
aS'Andrew Bynum makes free throw 2 of 2'
p2998
aS'35-36'
p2999
aS'\xc2\xa0'
p3000
aa(lp3001
S'2:58'
p3002
aS'\xc2\xa0'
p3003
aS'35-39'
p3004
aS'Kevin Durant makes 24-foot three point jumper'
p3005
aa(lp3006
S'2:44'
p3007
aS'Derek Fisher misses layup'
p3008
aS'35-39'
p3009
aS'\xc2\xa0'
p3010
aa(lp3011
S'2:43'
p3012
aS'Pau Gasol offensive rebound'
p3013
aS'35-39'
p3014
aS'\xc2\xa0'
p3015
aa(lp3016
S'2:43'
p3017
aS'\xc2\xa0'
p3018
aS'35-39'
p3019
aS'Serge Ibaka shooting foul (Pau Gasol draws the foul)'
p3020
aa(lp3021
S'2:43'
p3022
aS'Oklahoma City full timeout'
p3023
aa(lp3024
S'2:43'
p3025
aS'Pau Gasol misses free throw 1 of 2'
p3026
aS'35-39'
p3027
aS'\xc2\xa0'
p3028
aa(lp3029
S'2:43'
p3030
aS'Los Angeles offensive team rebound'
p3031
aS'35-39'
p3032
aS'\xc2\xa0'
p3033
aa(lp3034
S'2:43'
p3035
aS'Pau Gasol makes free throw 2 of 2'
p3036
aS'36-39'
p3037
aS'\xc2\xa0'
p3038
aa(lp3039
S'2:28'
p3040
aS'\xc2\xa0'
p3041
aS'36-39'
p3042
aS'Kevin Durant misses jumper'
p3043
aa(lp3044
S'2:25'
p3045
aS'Kobe Bryant defensive rebound'
p3046
aS'36-39'
p3047
aS'\xc2\xa0'
p3048
aa(lp3049
S'2:11'
p3050
aS'Kobe Bryant misses driving layup'
p3051
aS'36-39'
p3052
aS'\xc2\xa0'
p3053
aa(lp3054
S'2:10'
p3055
aS'\xc2\xa0'
p3056
aS'36-39'
p3057
aS'Kendrick Perkins defensive rebound'
p3058
aa(lp3059
S'2:03'
p3060
aS'\xc2\xa0'
p3061
aS'36-39'
p3062
aS'James Harden bad pass (Metta World Peace steals)'
p3063
aa(lp3064
S'1:58'
p3065
aS'Andrew Bynum bad pass'
p3066
aS'36-39'
p3067
aS'\xc2\xa0'
p3068
aa(lp3069
S'1:46'
p3070
aS'Pau Gasol shooting foul (Russell Westbrook draws the foul)'
p3071
aS'36-39'
p3072
aS'\xc2\xa0'
p3073
aa(lp3074
S'1:46'
p3075
aS'\xc2\xa0'
p3076
aS'36-40'
p3077
aS'Russell Westbrook makes free throw 1 of 2'
p3078
aa(lp3079
S'1:46'
p3080
aS'\xc2\xa0'
p3081
aS'36-40'
p3082
aS'Russell Westbrook misses free throw 2 of 2'
p3083
aa(lp3084
S'1:45'
p3085
aS'Andrew Bynum defensive rebound'
p3086
aS'36-40'
p3087
aS'\xc2\xa0'
p3088
aa(lp3089
S'1:22'
p3090
aS'Metta World Peace makes 24-foot three point jumper'
p3091
aS'39-40'
p3092
aS'\xc2\xa0'
p3093
aa(lp3094
S'0:59'
p3095
aS'\xc2\xa0'
p3096
aS'39-40'
p3097
aS'Russell Westbrook lost ball (Metta World Peace steals)'
p3098
aa(lp3099
S'0:53'
p3100
aS'Derek Fisher makes 5-foot two point shot'
p3101
aS'41-40'
p3102
aS'\xc2\xa0'
p3103
aa(lp3104
S'0:37'
p3105
aS'Kobe Bryant shooting foul (Serge Ibaka draws the foul)'
p3106
aS'41-40'
p3107
aS'\xc2\xa0'
p3108
aa(lp3109
S'0:37'
p3110
aS'\xc2\xa0'
p3111
aS'41-41'
p3112
aS'Serge Ibaka makes free throw 1 of 2'
p3113
aa(lp3114
S'0:37'
p3115
aS'\xc2\xa0'
p3116
aS'41-41'
p3117
aS'Serge Ibaka misses free throw 2 of 2'
p3118
aa(lp3119
S'0:37'
p3120
aS'Andrew Bynum defensive rebound'
p3121
aS'41-41'
p3122
aS'\xc2\xa0'
p3123
aa(lp3124
S'0:21'
p3125
aS"Serge Ibaka blocks Derek Fisher's jumper"
p3126
aS'41-41'
p3127
aS'\xc2\xa0'
p3128
aa(lp3129
S'0:18'
p3130
aS'Kobe Bryant offensive rebound'
p3131
aS'41-41'
p3132
aS'\xc2\xa0'
p3133
aa(lp3134
S'0:17'
p3135
aS'Pau Gasol makes dunk (Kobe Bryant assists)'
p3136
aS'43-41'
p3137
aS'\xc2\xa0'
p3138
aa(lp3139
S'0:00'
p3140
aS'\xc2\xa0'
p3141
aS'43-44'
p3142
aS'Russell Westbrook makes 24-foot three point jumper'
p3143
aa(lp3144
S'0:00'
p3145
aS'Andrew Bynum bad pass (Kevin Durant steals)'
p3146
aS'43-44'
p3147
aS'\xc2\xa0'
p3148
aa(lp3149
S'0:00'
p3150
aS'\xc2\xa0'
p3151
aS'43-46'
p3152
aS'Kevin Durant makes 15-foot jumper'
p3153
aa(lp3154
S'0:00'
p3155
aS'End of the 2nd Quarter'
p3156
aa(lp3157
S'3rd Quarter Summary'
p3158
aa(lp3159
a(lp3160
S'12:00'
p3161
aS'Start of the 3rd Quarter'
p3162
aa(lp3163
S'11:45'
p3164
aS'\xc2\xa0'
p3165
aS'43-48'
p3166
aS'Russell Westbrook makes 21-foot jumper (Kendrick Perkins assists)'
p3167
aa(lp3168
S'11:22'
p3169
aS'Pau Gasol makes 11-foot two point shot'
p3170
aS'45-48'
p3171
aS'\xc2\xa0'
p3172
aa(lp3173
S'11:07'
p3174
aS'Kobe Bryant personal foul (Kendrick Perkins draws the foul)'
p3175
aS'45-48'
p3176
aS'\xc2\xa0'
p3177
aa(lp3178
S'11:00'
p3179
aS'\xc2\xa0'
p3180
aS'45-48'
p3181
aS'Daequan Cook misses 25-foot three point jumper'
p3182
aa(lp3183
S'10:59'
p3184
aS'Pau Gasol defensive rebound'
p3185
aS'45-48'
p3186
aS'\xc2\xa0'
p3187
aa(lp3188
S'10:48'
p3189
aS'\xc2\xa0'
p3190
aS'45-48'
p3191
aS'Daequan Cook shooting foul (Kobe Bryant draws the foul)'
p3192
aa(lp3193
S'10:48'
p3194
aS'Kobe Bryant makes free throw 1 of 2'
p3195
aS'46-48'
p3196
aS'\xc2\xa0'
p3197
aa(lp3198
S'10:48'
p3199
aS'Kobe Bryant makes free throw 2 of 2'
p3200
aS'47-48'
p3201
aS'\xc2\xa0'
p3202
aa(lp3203
S'10:34'
p3204
aS'\xc2\xa0'
p3205
aS'47-48'
p3206
aS'Daequan Cook misses 27-foot three point jumper'
p3207
aa(lp3208
S'10:33'
p3209
aS'Metta World Peace defensive rebound'
p3210
aS'47-48'
p3211
aS'\xc2\xa0'
p3212
aa(lp3213
S'10:18'
p3214
aS'Pau Gasol misses 24-foot three pointer'
p3215
aS'47-48'
p3216
aS'\xc2\xa0'
p3217
aa(lp3218
S'10:18'
p3219
aS'\xc2\xa0'
p3220
aS'47-48'
p3221
aS'Russell Westbrook defensive rebound'
p3222
aa(lp3223
S'10:11'
p3224
aS'\xc2\xa0'
p3225
aS'47-51'
p3226
aS'Daequan Cook makes 24-foot three point jumper (Russell Westbrook assists)'
p3227
aa(lp3228
S'9:57'
p3229
aS'Metta World Peace makes 23-foot three point jumper (Derek Fisher assists)'
p3230
aS'50-51'
p3231
aS'\xc2\xa0'
p3232
aa(lp3233
S'9:37'
p3234
aS'\xc2\xa0'
p3235
aS'50-53'
p3236
aS'Serge Ibaka makes jumper (Kevin Durant assists)'
p3237
aa(lp3238
S'9:25'
p3239
aS'Derek Fisher bad pass (Russell Westbrook steals)'
p3240
aS'50-53'
p3241
aS'\xc2\xa0'
p3242
aa(lp3243
S'9:19'
p3244
aS'\xc2\xa0'
p3245
aS'50-53'
p3246
aS'Russell Westbrook misses two point shot'
p3247
aa(lp3248
S'9:17'
p3249
aS'\xc2\xa0'
p3250
aS'50-53'
p3251
aS'Oklahoma City defensive team rebound'
p3252
aa(lp3253
S'8:55'
p3254
aS'Andrew Bynum misses driving layup'
p3255
aS'50-53'
p3256
aS'\xc2\xa0'
p3257
aa(lp3258
S'8:53'
p3259
aS'\xc2\xa0'
p3260
aS'50-53'
p3261
aS'Russell Westbrook defensive rebound'
p3262
aa(lp3263
S'8:48'
p3264
aS'\xc2\xa0'
p3265
aS'50-53'
p3266
aS'Kevin Durant misses 24-foot three point jumper'
p3267
aa(lp3268
S'8:47'
p3269
aS'Andrew Bynum defensive rebound'
p3270
aS'50-53'
p3271
aS'\xc2\xa0'
p3272
aa(lp3273
S'8:22'
p3274
aS'Pau Gasol misses 9-foot two point shot'
p3275
aS'50-53'
p3276
aS'\xc2\xa0'
p3277
aa(lp3278
S'8:21'
p3279
aS'\xc2\xa0'
p3280
aS'50-53'
p3281
aS'Serge Ibaka defensive rebound'
p3282
aa(lp3283
S'8:11'
p3284
aS'\xc2\xa0'
p3285
aS'50-53'
p3286
aS'Serge Ibaka misses jumper'
p3287
aa(lp3288
S'8:08'
p3289
aS'Andrew Bynum defensive rebound'
p3290
aS'50-53'
p3291
aS'\xc2\xa0'
p3292
aa(lp3293
S'7:47'
p3294
aS'Metta World Peace misses 22-foot three point jumper'
p3295
aS'50-53'
p3296
aS'\xc2\xa0'
p3297
aa(lp3298
S'7:46'
p3299
aS'Los Angeles offensive team rebound'
p3300
aS'50-53'
p3301
aS'\xc2\xa0'
p3302
aa(lp3303
S'7:45'
p3304
aS'Kobe Bryant misses 13-foot jumper'
p3305
aS'50-53'
p3306
aS'\xc2\xa0'
p3307
aa(lp3308
S'7:45'
p3309
aS'Los Angeles offensive team rebound'
p3310
aS'50-53'
p3311
aS'\xc2\xa0'
p3312
aa(lp3313
S'7:45'
p3314
aS'shot clock turnover'
p3315
aS'50-53'
p3316
aS'\xc2\xa0'
p3317
aa(lp3318
S'7:33'
p3319
aS'\xc2\xa0'
p3320
aS'50-55'
p3321
aS'Kevin Durant makes jumper (Russell Westbrook assists)'
p3322
aa(lp3323
S'7:33'
p3324
aS'Metta World Peace shooting foul (Kevin Durant draws the foul)'
p3325
aS'50-55'
p3326
aS'\xc2\xa0'
p3327
aa(lp3328
S'7:33'
p3329
aS'\xc2\xa0'
p3330
aS'50-56'
p3331
aS'Kevin Durant makes free throw 1 of 1'
p3332
aa(lp3333
S'7:20'
p3334
aS'Derek Fisher misses 18-foot jumper'
p3335
aS'50-56'
p3336
aS'\xc2\xa0'
p3337
aa(lp3338
S'7:20'
p3339
aS'\xc2\xa0'
p3340
aS'50-56'
p3341
aS'Serge Ibaka defensive rebound'
p3342
aa(lp3343
S'7:13'
p3344
aS'\xc2\xa0'
p3345
aS'50-56'
p3346
aS'Daequan Cook misses three point jumper'
p3347
aa(lp3348
S'7:11'
p3349
aS'\xc2\xa0'
p3350
aS'50-56'
p3351
aS'Oklahoma City defensive team rebound'
p3352
aa(lp3353
S'6:54'
p3354
aS'Derek Fisher misses driving layup'
p3355
aS'50-56'
p3356
aS'\xc2\xa0'
p3357
aa(lp3358
S'6:54'
p3359
aS'\xc2\xa0'
p3360
aS'50-56'
p3361
aS'Serge Ibaka defensive rebound'
p3362
aa(lp3363
S'6:48'
p3364
aS'\xc2\xa0'
p3365
aS'50-59'
p3366
aS'Daequan Cook makes 25-foot three point jumper (Russell Westbrook assists)'
p3367
aa(lp3368
S'6:28'
p3369
aS'Pau Gasol makes 11-foot two point shot (Metta World Peace assists)'
p3370
aS'52-59'
p3371
aS'\xc2\xa0'
p3372
aa(lp3373
S'6:13'
p3374
aS'\xc2\xa0'
p3375
aS'52-59'
p3376
aS'Daequan Cook misses three point jumper'
p3377
aa(lp3378
S'6:13'
p3379
aS'Metta World Peace defensive rebound'
p3380
aS'52-59'
p3381
aS'\xc2\xa0'
p3382
aa(lp3383
S'6:00'
p3384
aS'\xc2\xa0'
p3385
aS'52-59'
p3386
aS'Daequan Cook shooting foul (Kobe Bryant draws the foul)'
p3387
aa(lp3388
S'6:00'
p3389
aS'Kobe Bryant misses free throw 1 of 2'
p3390
aS'52-59'
p3391
aS'\xc2\xa0'
p3392
aa(lp3393
S'6:00'
p3394
aS'Los Angeles offensive team rebound'
p3395
aS'52-59'
p3396
aS'\xc2\xa0'
p3397
aa(lp3398
S'6:00'
p3399
aS'Kobe Bryant makes free throw 2 of 2'
p3400
aS'53-59'
p3401
aS'\xc2\xa0'
p3402
aa(lp3403
S'5:45'
p3404
aS'\xc2\xa0'
p3405
aS'53-59'
p3406
aS'Kevin Durant misses 9-foot two point shot'
p3407
aa(lp3408
S'5:43'
p3409
aS'Pau Gasol defensive rebound'
p3410
aS'53-59'
p3411
aS'\xc2\xa0'
p3412
aa(lp3413
S'5:31'
p3414
aS'Pau Gasol bad pass'
p3415
aS'53-59'
p3416
aS'\xc2\xa0'
p3417
aa(lp3418
S'5:31'
p3419
aS'Oklahoma City full timeout'
p3420
aa(lp3421
S'5:31'
p3422
aS'Troy Murphy enters the game for Andrew Bynum'
p3423
aS'53-59'
p3424
aS'\xc2\xa0'
p3425
aa(lp3426
S'5:31'
p3427
aS'Steve Blake enters the game for Derek Fisher'
p3428
aS'53-59'
p3429
aS'\xc2\xa0'
p3430
aa(lp3431
S'5:20'
p3432
aS'\xc2\xa0'
p3433
aS'53-61'
p3434
aS'Kevin Durant makes two point shot (Russell Westbrook assists)'
p3435
aa(lp3436
S'4:54'
p3437
aS'Pau Gasol misses running jumper'
p3438
aS'53-61'
p3439
aS'\xc2\xa0'
p3440
aa(lp3441
S'4:54'
p3442
aS'\xc2\xa0'
p3443
aS'53-61'
p3444
aS'Serge Ibaka defensive rebound'
p3445
aa(lp3446
S'4:41'
p3447
aS'\xc2\xa0'
p3448
aS'53-63'
p3449
aS'Serge Ibaka makes 19-foot jumper (Kevin Durant assists)'
p3450
aa(lp3451
S'4:18'
p3452
aS'Kobe Bryant misses 25-foot three point jumper'
p3453
aS'53-63'
p3454
aS'\xc2\xa0'
p3455
aa(lp3456
S'4:18'
p3457
aS'Troy Murphy offensive rebound'
p3458
aS'53-63'
p3459
aS'\xc2\xa0'
p3460
aa(lp3461
S'4:18'
p3462
aS'\xc2\xa0'
p3463
aS'53-63'
p3464
aS'Russell Westbrook personal foul (Troy Murphy draws the foul)'
p3465
aa(lp3466
S'4:18'
p3467
aS'\xc2\xa0'
p3468
aS'53-63'
p3469
aS'James Harden enters the game for Daequan Cook'
p3470
aa(lp3471
S'4:01'
p3472
aS'Kobe Bryant misses 16-foot two point shot'
p3473
aS'53-63'
p3474
aS'\xc2\xa0'
p3475
aa(lp3476
S'4:00'
p3477
aS'\xc2\xa0'
p3478
aS'53-63'
p3479
aS'Serge Ibaka defensive rebound'
p3480
aa(lp3481
S'3:48'
p3482
aS'\xc2\xa0'
p3483
aS'53-63'
p3484
aS'Russell Westbrook misses two point shot'
p3485
aa(lp3486
S'3:48'
p3487
aS'Pau Gasol defensive rebound'
p3488
aS'53-63'
p3489
aS'\xc2\xa0'
p3490
aa(lp3491
S'3:34'
p3492
aS'Kobe Bryant makes driving layup'
p3493
aS'55-63'
p3494
aS'\xc2\xa0'
p3495
aa(lp3496
S'3:34'
p3497
aS'\xc2\xa0'
p3498
aS'55-63'
p3499
aS'Kendrick Perkins shooting foul (Kobe Bryant draws the foul)'
p3500
aa(lp3501
S'3:34'
p3502
aS'\xc2\xa0'
p3503
aS'55-63'
p3504
aS'Daequan Cook enters the game for Kendrick Perkins'
p3505
aa(lp3506
S'3:34'
p3507
aS'Kobe Bryant makes free throw 1 of 1'
p3508
aS'56-63'
p3509
aS'\xc2\xa0'
p3510
aa(lp3511
S'3:21'
p3512
aS'\xc2\xa0'
p3513
aS'56-65'
p3514
aS'Kevin Durant makes driving layup'
p3515
aa(lp3516
S'3:02'
p3517
aS'\xc2\xa0'
p3518
aS'56-65'
p3519
aS'James Harden shooting foul (Kobe Bryant draws the foul)'
p3520
aa(lp3521
S'3:02'
p3522
aS'Kobe Bryant makes free throw 1 of 2'
p3523
aS'57-65'
p3524
aS'\xc2\xa0'
p3525
aa(lp3526
S'3:02'
p3527
aS'Andrew Bynum enters the game for Pau Gasol'
p3528
aS'57-65'
p3529
aS'\xc2\xa0'
p3530
aa(lp3531
S'3:02'
p3532
aS'Matt Barnes enters the game for Metta World Peace'
p3533
aS'57-65'
p3534
aS'\xc2\xa0'
p3535
aa(lp3536
S'3:02'
p3537
aS'Kobe Bryant makes free throw 2 of 2'
p3538
aS'58-65'
p3539
aS'\xc2\xa0'
p3540
aa(lp3541
S'2:43'
p3542
aS'\xc2\xa0'
p3543
aS'58-67'
p3544
aS'Russell Westbrook makes 17-foot two point shot'
p3545
aa(lp3546
S'2:25'
p3547
aS"Kevin Durant blocks Steve Blake's 23-foot three point jumper"
p3548
aS'58-67'
p3549
aS'\xc2\xa0'
p3550
aa(lp3551
S'2:24'
p3552
aS'\xc2\xa0'
p3553
aS'58-67'
p3554
aS'Russell Westbrook defensive rebound'
p3555
aa(lp3556
S'2:20'
p3557
aS'\xc2\xa0'
p3558
aS'58-69'
p3559
aS'James Harden makes dunk (Kevin Durant assists)'
p3560
aa(lp3561
S'2:18'
p3562
aS'Los Angeles full timeout'
p3563
aa(lp3564
S'1:58'
p3565
aS'Andrew Bynum misses 4-foot two point shot'
p3566
aS'58-69'
p3567
aS'\xc2\xa0'
p3568
aa(lp3569
S'1:57'
p3570
aS'\xc2\xa0'
p3571
aS'58-69'
p3572
aS'Kevin Durant defensive rebound'
p3573
aa(lp3574
S'1:43'
p3575
aS'\xc2\xa0'
p3576
aS'58-71'
p3577
aS'Daequan Cook makes 23-foot jumper (Kevin Durant assists)'
p3578
aa(lp3579
S'1:21'
p3580
aS'\xc2\xa0'
p3581
aS'58-71'
p3582
aS'Serge Ibaka personal foul (Andrew Bynum draws the foul)'
p3583
aa(lp3584
S'1:21'
p3585
aS'Andrew Bynum makes free throw 1 of 2'
p3586
aS'59-71'
p3587
aS'\xc2\xa0'
p3588
aa(lp3589
S'1:21'
p3590
aS'\xc2\xa0'
p3591
aS'59-71'
p3592
aS'Reggie Jackson enters the game for Russell Westbrook'
p3593
aa(lp3594
S'1:21'
p3595
aS'Pau Gasol enters the game for Troy Murphy'
p3596
aS'59-71'
p3597
aS'\xc2\xa0'
p3598
aa(lp3599
S'1:21'
p3600
aS'Andrew Bynum makes free throw 2 of 2'
p3601
aS'60-71'
p3602
aS'\xc2\xa0'
p3603
aa(lp3604
S'1:10'
p3605
aS'\xc2\xa0'
p3606
aS'60-71'
p3607
aS'James Harden bad pass (Pau Gasol steals)'
p3608
aa(lp3609
S'0:55'
p3610
aS'Andrew Bynum misses 3-foot jumper'
p3611
aS'60-71'
p3612
aS'\xc2\xa0'
p3613
aa(lp3614
S'0:53'
p3615
aS'Andrew Bynum misses tip shot'
p3616
aS'60-71'
p3617
aS'\xc2\xa0'
p3618
aa(lp3619
S'0:53'
p3620
aS'Andrew Bynum offensive rebound'
p3621
aS'60-71'
p3622
aS'\xc2\xa0'
p3623
aa(lp3624
S'0:53'
p3625
aS'Pau Gasol makes tip shot'
p3626
aS'62-71'
p3627
aS'\xc2\xa0'
p3628
aa(lp3629
S'0:53'
p3630
aS'Pau Gasol offensive rebound'
p3631
aS'62-71'
p3632
aS'\xc2\xa0'
p3633
aa(lp3634
S'0:33'
p3635
aS'\xc2\xa0'
p3636
aS'62-73'
p3637
aS'Serge Ibaka makes 19-foot jumper (Kevin Durant assists)'
p3638
aa(lp3639
S'0:15'
p3640
aS'Matt Barnes traveling'
p3641
aS'62-73'
p3642
aS'\xc2\xa0'
p3643
aa(lp3644
S'0:15'
p3645
aS'Andrew Goudelock enters the game for Kobe Bryant'
p3646
aS'62-73'
p3647
aS'\xc2\xa0'
p3648
aa(lp3649
S'0:15'
p3650
aS'\xc2\xa0'
p3651
aS'62-73'
p3652
aS'Nazr Mohammed enters the game for Serge Ibaka'
p3653
aa(lp3654
S'0:15'
p3655
aS'Metta World Peace enters the game for Andrew Bynum'
p3656
aS'62-73'
p3657
aS'\xc2\xa0'
p3658
aa(lp3659
S'0:00'
p3660
aS'\xc2\xa0'
p3661
aS'62-73'
p3662
aS'Reggie Jackson misses 23-foot three point jumper'
p3663
aa(lp3664
S'0:00'
p3665
aS'\xc2\xa0'
p3666
aS'62-73'
p3667
aS'Oklahoma City defensive team rebound'
p3668
aa(lp3669
S'0:00'
p3670
aS'End of the 3rd Quarter'
p3671
aa(lp3672
S'4th Quarter Summary'
p3673
aa(lp3674
a(lp3675
S'12:00'
p3676
aS'Start of the 4th Quarter'
p3677
aa(lp3678
S'11:41'
p3679
aS'Andrew Bynum misses 5-foot two point shot'
p3680
aS'62-73'
p3681
aS'\xc2\xa0'
p3682
aa(lp3683
S'11:41'
p3684
aS'\xc2\xa0'
p3685
aS'62-73'
p3686
aS'Nazr Mohammed defensive rebound'
p3687
aa(lp3688
S'11:26'
p3689
aS'\xc2\xa0'
p3690
aS'62-73'
p3691
aS'James Harden bad pass'
p3692
aa(lp3693
S'11:12'
p3694
aS'Steve Blake makes jumper (Pau Gasol assists)'
p3695
aS'64-73'
p3696
aS'\xc2\xa0'
p3697
aa(lp3698
S'10:52'
p3699
aS'\xc2\xa0'
p3700
aS'64-73'
p3701
aS'James Harden offensive foul (Matt Barnes draws the foul)'
p3702
aa(lp3703
S'10:52'
p3704
aS'\xc2\xa0'
p3705
aS'64-73'
p3706
aS'James Harden turnover'
p3707
aa(lp3708
S'10:41'
p3709
aS'\xc2\xa0'
p3710
aS'64-73'
p3711
aS'Reggie Jackson shooting foul (Steve Blake draws the foul)'
p3712
aa(lp3713
S'10:41'
p3714
aS'Steve Blake makes free throw 1 of 2'
p3715
aS'65-73'
p3716
aS'\xc2\xa0'
p3717
aa(lp3718
S'10:41'
p3719
aS'Steve Blake makes free throw 2 of 2'
p3720
aS'66-73'
p3721
aS'\xc2\xa0'
p3722
aa(lp3723
S'10:32'
p3724
aS'Steve Blake shooting foul (Reggie Jackson draws the foul)'
p3725
aS'66-73'
p3726
aS'\xc2\xa0'
p3727
aa(lp3728
S'10:32'
p3729
aS'\xc2\xa0'
p3730
aS'66-74'
p3731
aS'Reggie Jackson makes free throw 1 of 2'
p3732
aa(lp3733
S'10:32'
p3734
aS'\xc2\xa0'
p3735
aS'66-75'
p3736
aS'Reggie Jackson makes free throw 2 of 2'
p3737
aa(lp3738
S'10:18'
p3739
aS'Pau Gasol bad pass (James Harden steals)'
p3740
aS'66-75'
p3741
aS'\xc2\xa0'
p3742
aa(lp3743
S'10:15'
p3744
aS'Matt Barnes shooting foul (James Harden draws the foul)'
p3745
aS'66-75'
p3746
aS'\xc2\xa0'
p3747
aa(lp3748
S'10:15'
p3749
aS'\xc2\xa0'
p3750
aS'66-76'
p3751
aS'James Harden makes free throw 1 of 2'
p3752
aa(lp3753
S'10:15'
p3754
aS'Troy Murphy enters the game for Pau Gasol'
p3755
aS'66-76'
p3756
aS'\xc2\xa0'
p3757
aa(lp3758
S'10:15'
p3759
aS'\xc2\xa0'
p3760
aS'66-77'
p3761
aS'James Harden makes free throw 2 of 2'
p3762
aa(lp3763
S'9:57'
p3764
aS'Matt Barnes misses 14-foot jumper'
p3765
aS'66-77'
p3766
aS'\xc2\xa0'
p3767
aa(lp3768
S'9:56'
p3769
aS'\xc2\xa0'
p3770
aS'66-77'
p3771
aS'Reggie Jackson defensive rebound'
p3772
aa(lp3773
S'9:49'
p3774
aS'\xc2\xa0'
p3775
aS'66-77'
p3776
aS'Reggie Jackson misses 15-foot two point shot'
p3777
aa(lp3778
S'9:48'
p3779
aS'Matt Barnes defensive rebound'
p3780
aS'66-77'
p3781
aS'\xc2\xa0'
p3782
aa(lp3783
S'9:34'
p3784
aS'Steve Blake bad pass (Nazr Mohammed steals)'
p3785
aS'66-77'
p3786
aS'\xc2\xa0'
p3787
aa(lp3788
S'9:26'
p3789
aS'\xc2\xa0'
p3790
aS'66-77'
p3791
aS'Royal Ivey misses three point jumper'
p3792
aa(lp3793
S'9:26'
p3794
aS'Steve Blake defensive rebound'
p3795
aS'66-77'
p3796
aS'\xc2\xa0'
p3797
aa(lp3798
S'9:12'
p3799
aS'Andrew Bynum makes two point shot'
p3800
aS'68-77'
p3801
aS'\xc2\xa0'
p3802
aa(lp3803
S'9:11'
p3804
aS'Oklahoma City full timeout'
p3805
aa(lp3806
S'9:11'
p3807
aS'\xc2\xa0'
p3808
aS'68-77'
p3809
aS'Russell Westbrook enters the game for Royal Ivey'
p3810
aa(lp3811
S'9:11'
p3812
aS'Kobe Bryant enters the game for Andrew Goudelock'
p3813
aS'68-77'
p3814
aS'\xc2\xa0'
p3815
aa(lp3816
S'9:02'
p3817
aS'\xc2\xa0'
p3818
aS'68-77'
p3819
aS'Russell Westbrook misses 17-foot two point shot'
p3820
aa(lp3821
S'9:00'
p3822
aS'Matt Barnes defensive rebound'
p3823
aS'68-77'
p3824
aS'\xc2\xa0'
p3825
aa(lp3826
S'8:38'
p3827
aS'Andrew Bynum makes 6-foot two point shot (Kobe Bryant assists)'
p3828
aS'70-77'
p3829
aS'\xc2\xa0'
p3830
aa(lp3831
S'8:26'
p3832
aS'Troy Murphy personal foul (James Harden draws the foul)'
p3833
aS'70-77'
p3834
aS'\xc2\xa0'
p3835
aa(lp3836
S'8:26'
p3837
aS'\xc2\xa0'
p3838
aS'70-77'
p3839
aS'Kendrick Perkins enters the game for Cole Aldrich'
p3840
aa(lp3841
S'8:26'
p3842
aS'\xc2\xa0'
p3843
aS'70-77'
p3844
aS'Kevin Durant enters the game for Reggie Jackson'
p3845
aa(lp3846
S'8:26'
p3847
aS'\xc2\xa0'
p3848
aS'70-77'
p3849
aS'Serge Ibaka enters the game for Nazr Mohammed'
p3850
aa(lp3851
S'8:26'
p3852
aS'Pau Gasol enters the game for Troy Murphy'
p3853
aS'70-77'
p3854
aS'\xc2\xa0'
p3855
aa(lp3856
S'8:17'
p3857
aS'\xc2\xa0'
p3858
aS'70-77'
p3859
aS'Russell Westbrook misses 24-foot three point jumper'
p3860
aa(lp3861
S'8:15'
p3862
aS'\xc2\xa0'
p3863
aS'70-77'
p3864
aS'James Harden offensive rebound'
p3865
aa(lp3866
S'8:00'
p3867
aS'\xc2\xa0'
p3868
aS'70-79'
p3869
aS'James Harden makes driving layup'
p3870
aa(lp3871
S'7:46'
p3872
aS'\xc2\xa0'
p3873
aS'70-79'
p3874
aS'Russell Westbrook personal foul (Steve Blake draws the foul)'
p3875
aa(lp3876
S'7:39'
p3877
aS'Kobe Bryant makes two point shot'
p3878
aS'72-79'
p3879
aS'\xc2\xa0'
p3880
aa(lp3881
S'7:13'
p3882
aS'\xc2\xa0'
p3883
aS'72-81'
p3884
aS'Kevin Durant makes 6-foot two point shot'
p3885
aa(lp3886
S'7:00'
p3887
aS'Andrew Bynum makes dunk (Matt Barnes assists)'
p3888
aS'74-81'
p3889
aS'\xc2\xa0'
p3890
aa(lp3891
S'6:41'
p3892
aS'\xc2\xa0'
p3893
aS'74-83'
p3894
aS'Russell Westbrook makes two point shot'
p3895
aa(lp3896
S'6:41'
p3897
aS'Matt Barnes shooting foul (Russell Westbrook draws the foul)'
p3898
aS'74-83'
p3899
aS'\xc2\xa0'
p3900
aa(lp3901
S'6:41'
p3902
aS'Metta World Peace enters the game for Matt Barnes'
p3903
aS'74-83'
p3904
aS'\xc2\xa0'
p3905
aa(lp3906
S'6:41'
p3907
aS'\xc2\xa0'
p3908
aS'74-84'
p3909
aS'Russell Westbrook makes free throw 1 of 1'
p3910
aa(lp3911
S'6:18'
p3912
aS'Andrew Bynum misses two point shot'
p3913
aS'74-84'
p3914
aS'\xc2\xa0'
p3915
aa(lp3916
S'6:18'
p3917
aS'\xc2\xa0'
p3918
aS'74-84'
p3919
aS'Kevin Durant defensive rebound'
p3920
aa(lp3921
S'6:15'
p3922
aS'\xc2\xa0'
p3923
aS'74-86'
p3924
aS'James Harden makes dunk (Russell Westbrook assists)'
p3925
aa(lp3926
S'6:13'
p3927
aS'Los Angeles full timeout'
p3928
aa(lp3929
S'6:13'
p3930
aS'Derek Fisher enters the game for Steve Blake'
p3931
aS'74-86'
p3932
aS'\xc2\xa0'
p3933
aa(lp3934
S'5:50'
p3935
aS'Metta World Peace misses 21-foot jumper'
p3936
aS'74-86'
p3937
aS'\xc2\xa0'
p3938
aa(lp3939
S'5:50'
p3940
aS'\xc2\xa0'
p3941
aS'74-86'
p3942
aS'Kendrick Perkins defensive rebound'
p3943
aa(lp3944
S'5:30'
p3945
aS'\xc2\xa0'
p3946
aS'74-86'
p3947
aS'Kevin Durant misses 25-foot three point jumper'
p3948
aa(lp3949
S'5:28'
p3950
aS'Andrew Bynum defensive rebound'
p3951
aS'74-86'
p3952
aS'\xc2\xa0'
p3953
aa(lp3954
S'5:15'
p3955
aS'Kobe Bryant misses 20-foot two point shot'
p3956
aS'74-86'
p3957
aS'\xc2\xa0'
p3958
aa(lp3959
S'5:13'
p3960
aS'\xc2\xa0'
p3961
aS'74-86'
p3962
aS'Serge Ibaka defensive rebound'
p3963
aa(lp3964
S'4:54'
p3965
aS'\xc2\xa0'
p3966
aS'74-86'
p3967
aS'Serge Ibaka misses 17-foot jumper'
p3968
aa(lp3969
S'4:50'
p3970
aS'Kobe Bryant defensive rebound'
p3971
aS'74-86'
p3972
aS'\xc2\xa0'
p3973
aa(lp3974
S'4:41'
p3975
aS'Kobe Bryant misses layup'
p3976
aS'74-86'
p3977
aS'\xc2\xa0'
p3978
aa(lp3979
S'4:39'
p3980
aS'\xc2\xa0'
p3981
aS'74-86'
p3982
aS'Serge Ibaka defensive rebound'
p3983
aa(lp3984
S'4:35'
p3985
aS'\xc2\xa0'
p3986
aS'74-86'
p3987
aS'James Harden misses 4-foot jumper'
p3988
aa(lp3989
S'4:33'
p3990
aS'\xc2\xa0'
p3991
aS'74-86'
p3992
aS'Kevin Durant offensive rebound'
p3993
aa(lp3994
S'4:30'
p3995
aS'\xc2\xa0'
p3996
aS'74-86'
p3997
aS'James Harden misses 26-foot three point jumper'
p3998
aa(lp3999
S'4:28'
p4000
aS'\xc2\xa0'
p4001
aS'74-88'
p4002
aS'Kendrick Perkins makes two point shot'
p4003
aa(lp4004
S'4:28'
p4005
aS'\xc2\xa0'
p4006
aS'74-88'
p4007
aS'Kendrick Perkins offensive rebound'
p4008
aa(lp4009
S'4:07'
p4010
aS'Pau Gasol makes 7-foot jumper'
p4011
aS'76-88'
p4012
aS'\xc2\xa0'
p4013
aa(lp4014
S'4:07'
p4015
aS'\xc2\xa0'
p4016
aS'76-88'
p4017
aS'Serge Ibaka shooting foul (Pau Gasol draws the foul)'
p4018
aa(lp4019
S'4:07'
p4020
aS'Pau Gasol makes free throw 1 of 1'
p4021
aS'77-88'
p4022
aS'\xc2\xa0'
p4023
aa(lp4024
S'3:49'
p4025
aS'\xc2\xa0'
p4026
aS'77-88'
p4027
aS'Kevin Durant misses 5-foot two point shot'
p4028
aa(lp4029
S'3:47'
p4030
aS'Pau Gasol defensive rebound'
p4031
aS'77-88'
p4032
aS'\xc2\xa0'
p4033
aa(lp4034
S'3:44'
p4035
aS'Kobe Bryant makes two point shot'
p4036
aS'79-88'
p4037
aS'\xc2\xa0'
p4038
aa(lp4039
S'3:30'
p4040
aS'Metta World Peace personal foul (Russell Westbrook draws the foul)'
p4041
aS'79-88'
p4042
aS'\xc2\xa0'
p4043
aa(lp4044
S'3:30'
p4045
aS'\xc2\xa0'
p4046
aS'79-89'
p4047
aS'Russell Westbrook makes free throw 1 of 2'
p4048
aa(lp4049
S'3:30'
p4050
aS'\xc2\xa0'
p4051
aS'79-90'
p4052
aS'Russell Westbrook makes free throw 2 of 2'
p4053
aa(lp4054
S'3:10'
p4055
aS'\xc2\xa0'
p4056
aS'79-90'
p4057
aS'Serge Ibaka shooting foul (Kobe Bryant draws the foul)'
p4058
aa(lp4059
S'3:10'
p4060
aS'Kobe Bryant makes free throw 1 of 2'
p4061
aS'80-90'
p4062
aS'\xc2\xa0'
p4063
aa(lp4064
S'3:10'
p4065
aS'Kobe Bryant makes free throw 2 of 2'
p4066
aS'81-90'
p4067
aS'\xc2\xa0'
p4068
aa(lp4069
S'2:55'
p4070
aS'\xc2\xa0'
p4071
aS'81-90'
p4072
aS'Russell Westbrook misses 16-foot jumper'
p4073
aa(lp4074
S'2:55'
p4075
aS'\xc2\xa0'
p4076
aS'81-90'
p4077
aS'Oklahoma City offensive team rebound'
p4078
aa(lp4079
S'2:55'
p4080
aS'Derek Fisher loose ball foul (Kendrick Perkins draws the foul)'
p4081
aS'81-90'
p4082
aS'\xc2\xa0'
p4083
aa(lp4084
S'2:55'
p4085
aS'\xc2\xa0'
p4086
aS'81-90'
p4087
aS' Official timeout'
p4088
aa(lp4089
S'2:55'
p4090
aS'\xc2\xa0'
p4091
aS'81-90'
p4092
aS'Kendrick Perkins misses free throw 1 of 2'
p4093
aa(lp4094
S'2:55'
p4095
aS'\xc2\xa0'
p4096
aS'81-90'
p4097
aS'Oklahoma City offensive team rebound'
p4098
aa(lp4099
S'2:55'
p4100
aS'\xc2\xa0'
p4101
aS'81-91'
p4102
aS'Kendrick Perkins makes free throw 2 of 2'
p4103
aa(lp4104
S'2:31'
p4105
aS'Kobe Bryant misses 26-foot three point jumper'
p4106
aS'81-91'
p4107
aS'\xc2\xa0'
p4108
aa(lp4109
S'2:31'
p4110
aS'\xc2\xa0'
p4111
aS'81-91'
p4112
aS'Russell Westbrook defensive rebound'
p4113
aa(lp4114
S'2:15'
p4115
aS'\xc2\xa0'
p4116
aS'81-91'
p4117
aS'Kevin Durant misses 25-foot three point jumper'
p4118
aa(lp4119
S'2:14'
p4120
aS'\xc2\xa0'
p4121
aS'81-91'
p4122
aS'Kendrick Perkins offensive rebound'
p4123
aa(lp4124
S'2:10'
p4125
aS'\xc2\xa0'
p4126
aS'81-94'
p4127
aS'James Harden makes 25-foot three point jumper (Kendrick Perkins assists)'
p4128
aa(lp4129
S'1:54'
p4130
aS"James Harden blocks Kobe Bryant's 11-foot jumper"
p4131
aS'81-94'
p4132
aS'\xc2\xa0'
p4133
aa(lp4134
S'1:53'
p4135
aS'Los Angeles offensive team rebound'
p4136
aS'81-94'
p4137
aS'\xc2\xa0'
p4138
aa(lp4139
S'1:53'
p4140
aS'Metta World Peace technical foul (1st technical foul)'
p4141
aS'81-94'
p4142
aS'\xc2\xa0'
p4143
aa(lp4144
S'1:53'
p4145
aS'\xc2\xa0'
p4146
aS'81-95'
p4147
aS'Kevin Durant makes technical free throw'
p4148
aa(lp4149
S'1:45'
p4150
aS"Serge Ibaka blocks Kobe Bryant's 7-foot two point shot"
p4151
aS'81-95'
p4152
aS'\xc2\xa0'
p4153
aa(lp4154
S'1:43'
p4155
aS'Derek Fisher offensive rebound'
p4156
aS'81-95'
p4157
aS'\xc2\xa0'
p4158
aa(lp4159
S'1:42'
p4160
aS'Derek Fisher makes 24-foot three point jumper'
p4161
aS'84-95'
p4162
aS'\xc2\xa0'
p4163
aa(lp4164
S'1:24'
p4165
aS'\xc2\xa0'
p4166
aS'84-97'
p4167
aS'Kevin Durant makes 4-foot two point shot'
p4168
aa(lp4169
S'1:24'
p4170
aS'Metta World Peace shooting foul (Kevin Durant draws the foul)'
p4171
aS'84-97'
p4172
aS'\xc2\xa0'
p4173
aa(lp4174
S'1:24'
p4175
aS'\xc2\xa0'
p4176
aS'84-98'
p4177
aS'Kevin Durant makes free throw 1 of 1'
p4178
aa(lp4179
S'1:15'
p4180
aS'Derek Fisher misses 24-foot three point jumper'
p4181
aS'84-98'
p4182
aS'\xc2\xa0'
p4183
aa(lp4184
S'1:14'
p4185
aS'\xc2\xa0'
p4186
aS'84-98'
p4187
aS'Kendrick Perkins defensive rebound'
p4188
aa(lp4189
S'0:55'
p4190
aS'\xc2\xa0'
p4191
aS'84-98'
p4192
aS'Russell Westbrook misses 25-foot three point jumper'
p4193
aa(lp4194
S'0:55'
p4195
aS'Metta World Peace defensive rebound'
p4196
aS'84-98'
p4197
aS'\xc2\xa0'
p4198
aa(lp4199
S'0:46'
p4200
aS'Kobe Bryant traveling'
p4201
aS'84-98'
p4202
aS'\xc2\xa0'
p4203
aa(lp4204
S'0:46'
p4205
aS'Andrew Goudelock enters the game for Kobe Bryant'
p4206
aS'84-98'
p4207
aS'\xc2\xa0'
p4208
aa(lp4209
S'0:46'
p4210
aS'Darius Morris enters the game for Derek Fisher'
p4211
aS'84-98'
p4212
aS'\xc2\xa0'
p4213
aa(lp4214
S'0:46'
p4215
aS'\xc2\xa0'
p4216
aS'84-98'
p4217
aS'Ryan Reid enters the game for Kevin Durant'
p4218
aa(lp4219
S'0:46'
p4220
aS'\xc2\xa0'
p4221
aS'84-98'
p4222
aS'Cole Aldrich enters the game for Serge Ibaka'
p4223
aa(lp4224
S'0:46'
p4225
aS'\xc2\xa0'
p4226
aS'84-98'
p4227
aS'Royal Ivey enters the game for Kendrick Perkins'
p4228
aa(lp4229
S'0:46'
p4230
aS'\xc2\xa0'
p4231
aS'84-98'
p4232
aS'Reggie Jackson enters the game for Russell Westbrook'
p4233
aa(lp4234
S'0:46'
p4235
aS'Jason Kapono enters the game for Metta World Peace'
p4236
aS'84-98'
p4237
aS'\xc2\xa0'
p4238
aa(lp4239
S'0:46'
p4240
aS'Troy Murphy enters the game for Pau Gasol'
p4241
aS'84-98'
p4242
aS'\xc2\xa0'
p4243
aa(lp4244
S'0:46'
p4245
aS'Josh McRoberts enters the game for Andrew Bynum'
p4246
aS'84-98'
p4247
aS'\xc2\xa0'
p4248
aa(lp4249
S'0:30'
p4250
aS'Jason Kapono shooting foul (Reggie Jackson draws the foul)'
p4251
aS'84-98'
p4252
aS'\xc2\xa0'
p4253
aa(lp4254
S'0:30'
p4255
aS'\xc2\xa0'
p4256
aS'84-99'
p4257
aS'Reggie Jackson makes free throw 1 of 2'
p4258
aa(lp4259
S'0:30'
p4260
aS'\xc2\xa0'
p4261
aS'84-100'
p4262
aS'Reggie Jackson makes free throw 2 of 2'
p4263
aa(lp4264
S'0:30'
p4265
aS'\xc2\xa0'
p4266
aS'84-100'
p4267
aS'Ryan Reid technical foul (1st technical foul)'
p4268
aa(lp4269
S'0:30'
p4270
aS'Jason Kapono makes technical free throw'
p4271
aS'85-100'
p4272
aS'\xc2\xa0'
p4273
aa(lp4274
S'0:21'
p4275
aS'Darius Morris offensive charge (Ryan Reid draws the foul)'
p4276
aS'85-100'
p4277
aS'\xc2\xa0'
p4278
aa(lp4279
S'0:21'
p4280
aS'Darius Morris turnover'
p4281
aS'85-100'
p4282
aS'\xc2\xa0'
p4283
aa(lp4284
S'0:00'
p4285
aS'End of the 4th Quarter'
p4286
aa(lp4287
S'0:00'
p4288
aS'End Game'
p4289
aasg2161
(lp4290
S'TIME'
p4291
aS'LOS ANGELES'
p4292
aS'SCORE'
p4293
aS'OKLAHOMA CITY'
p4294
assS'320223007'
p4295
(dp4296
g3
(lp4297
(lp4298
S'12:00'
p4299
aS'Start of the 1st Quarter'
p4300
aa(lp4301
S'12:00'
p4302
aS'\xc2\xa0'
p4303
aS'0-0'
p4304
aS'Jumpball: Tim Duncan vs. Timofey Mozgov (Denver gains possession)'
p4305
aa(lp4306
S'11:30'
p4307
aS'\xc2\xa0'
p4308
aS'0-0'
p4309
aS'Kenneth Faried misses 11-foot jumper'
p4310
aa(lp4311
S'11:27'
p4312
aS'DeJuan Blair defensive rebound'
p4313
aS'0-0'
p4314
aS'\xc2\xa0'
p4315
aa(lp4316
S'11:07'
p4317
aS'Tim Duncan makes 15-foot jumper (Tony Parker assists)'
p4318
aS'2-0'
p4319
aS'\xc2\xa0'
p4320
aa(lp4321
S'10:55'
p4322
aS'\xc2\xa0'
p4323
aS'2-0'
p4324
aS"Tim Duncan blocks Arron Afflalo's layup"
p4325
aa(lp4326
S'10:53'
p4327
aS'\xc2\xa0'
p4328
aS'2-0'
p4329
aS'Denver offensive team rebound'
p4330
aa(lp4331
S'10:47'
p4332
aS'\xc2\xa0'
p4333
aS'2-0'
p4334
aS'Corey Brewer traveling'
p4335
aa(lp4336
S'10:33'
p4337
aS'\xc2\xa0'
p4338
aS'2-0'
p4339
aS'Timofey Mozgov shooting foul (Tim Duncan draws the foul)'
p4340
aa(lp4341
S'10:33'
p4342
aS'Tim Duncan misses free throw 1 of 2'
p4343
aS'2-0'
p4344
aS'\xc2\xa0'
p4345
aa(lp4346
S'10:33'
p4347
aS'San Antonio offensive team rebound'
p4348
aS'2-0'
p4349
aS'\xc2\xa0'
p4350
aa(lp4351
S'10:33'
p4352
aS'Tim Duncan misses free throw 2 of 2'
p4353
aS'2-0'
p4354
aS'\xc2\xa0'
p4355
aa(lp4356
S'10:32'
p4357
aS'San Antonio offensive team rebound'
p4358
aS'2-0'
p4359
aS'\xc2\xa0'
p4360
aa(lp4361
S'10:18'
p4362
aS'Richard Jefferson makes 26-foot three point jumper (Tim Duncan assists)'
p4363
aS'5-0'
p4364
aS'\xc2\xa0'
p4365
aa(lp4366
S'9:57'
p4367
aS'\xc2\xa0'
p4368
aS'5-2'
p4369
aS'Andre Miller makes 16-foot jumper'
p4370
aa(lp4371
S'9:45'
p4372
aS'Tony Parker misses 17-foot jumper'
p4373
aS'5-2'
p4374
aS'\xc2\xa0'
p4375
aa(lp4376
S'9:44'
p4377
aS'\xc2\xa0'
p4378
aS'5-2'
p4379
aS'Corey Brewer defensive rebound'
p4380
aa(lp4381
S'9:37'
p4382
aS'Tony Parker shooting foul (Andre Miller draws the foul)'
p4383
aS'5-2'
p4384
aS'\xc2\xa0'
p4385
aa(lp4386
S'9:37'
p4387
aS'\xc2\xa0'
p4388
aS'5-3'
p4389
aS'Andre Miller makes free throw 1 of 2'
p4390
aa(lp4391
S'9:37'
p4392
aS'\xc2\xa0'
p4393
aS'5-4'
p4394
aS'Andre Miller makes free throw 2 of 2'
p4395
aa(lp4396
S'9:25'
p4397
aS'Daniel Green lost ball (Andre Miller steals)'
p4398
aS'5-4'
p4399
aS'\xc2\xa0'
p4400
aa(lp4401
S'9:23'
p4402
aS'Tim Duncan personal foul (Arron Afflalo draws the foul)'
p4403
aS'5-4'
p4404
aS'\xc2\xa0'
p4405
aa(lp4406
S'9:03'
p4407
aS'\xc2\xa0'
p4408
aS'5-4'
p4409
aS'Arron Afflalo misses driving layup'
p4410
aa(lp4411
S'9:02'
p4412
aS'Daniel Green defensive rebound'
p4413
aS'5-4'
p4414
aS'\xc2\xa0'
p4415
aa(lp4416
S'8:56'
p4417
aS"Timofey Mozgov blocks DeJuan Blair's 5-foot two point shot"
p4418
aS'5-4'
p4419
aS'\xc2\xa0'
p4420
aa(lp4421
S'8:56'
p4422
aS'San Antonio offensive team rebound'
p4423
aS'5-4'
p4424
aS'\xc2\xa0'
p4425
aa(lp4426
S'8:51'
p4427
aS'Tim Duncan makes 18-foot jumper (DeJuan Blair assists)'
p4428
aS'7-4'
p4429
aS'\xc2\xa0'
p4430
aa(lp4431
S'8:23'
p4432
aS'\xc2\xa0'
p4433
aS'7-6'
p4434
aS'Kenneth Faried makes layup (Andre Miller assists)'
p4435
aa(lp4436
S'8:15'
p4437
aS'Daniel Green misses three point jumper'
p4438
aS'7-6'
p4439
aS'\xc2\xa0'
p4440
aa(lp4441
S'8:15'
p4442
aS'\xc2\xa0'
p4443
aS'7-6'
p4444
aS'Arron Afflalo defensive rebound'
p4445
aa(lp4446
S'8:02'
p4447
aS'\xc2\xa0'
p4448
aS'7-6'
p4449
aS'Andre Miller bad pass (Richard Jefferson steals)'
p4450
aa(lp4451
S'7:50'
p4452
aS'DeJuan Blair makes layup (Daniel Green assists)'
p4453
aS'9-6'
p4454
aS'\xc2\xa0'
p4455
aa(lp4456
S'7:37'
p4457
aS'\xc2\xa0'
p4458
aS'9-6'
p4459
aS'Arron Afflalo misses 17-foot jumper'
p4460
aa(lp4461
S'7:35'
p4462
aS'Tim Duncan defensive rebound'
p4463
aS'9-6'
p4464
aS'\xc2\xa0'
p4465
aa(lp4466
S'7:26'
p4467
aS'Tim Duncan makes 19-foot jumper (Tony Parker assists)'
p4468
aS'11-6'
p4469
aS'\xc2\xa0'
p4470
aa(lp4471
S'7:01'
p4472
aS'\xc2\xa0'
p4473
aS'11-6'
p4474
aS'Arron Afflalo misses 23-foot three point jumper'
p4475
aa(lp4476
S'7:00'
p4477
aS'Tim Duncan defensive rebound'
p4478
aS'11-6'
p4479
aS'\xc2\xa0'
p4480
aa(lp4481
S'6:48'
p4482
aS'Tim Duncan misses 7-foot two point shot'
p4483
aS'11-6'
p4484
aS'\xc2\xa0'
p4485
aa(lp4486
S'6:48'
p4487
aS'DeJuan Blair offensive rebound'
p4488
aS'11-6'
p4489
aS'\xc2\xa0'
p4490
aa(lp4491
S'6:45'
p4492
aS'DeJuan Blair makes layup'
p4493
aS'13-6'
p4494
aS'\xc2\xa0'
p4495
aa(lp4496
S'6:41'
p4497
aS'Denver full timeout'
p4498
aa(lp4499
S'6:41'
p4500
aS'\xc2\xa0'
p4501
aS'13-6'
p4502
aS'Chris Andersen enters the game for Timofey Mozgov'
p4503
aa(lp4504
S'6:41'
p4505
aS'Kawhi Leonard enters the game for Richard Jefferson'
p4506
aS'13-6'
p4507
aS'\xc2\xa0'
p4508
aa(lp4509
S'6:22'
p4510
aS'\xc2\xa0'
p4511
aS'13-6'
p4512
aS'Andre Miller misses 16-foot jumper'
p4513
aa(lp4514
S'6:22'
p4515
aS'\xc2\xa0'
p4516
aS'13-6'
p4517
aS'Andre Miller offensive rebound'
p4518
aa(lp4519
S'6:11'
p4520
aS'\xc2\xa0'
p4521
aS'13-6'
p4522
aS'Corey Brewer misses 26-foot three point jumper'
p4523
aa(lp4524
S'6:11'
p4525
aS'\xc2\xa0'
p4526
aS'13-6'
p4527
aS'Denver offensive team rebound'
p4528
aa(lp4529
S'6:11'
p4530
aS'DeJuan Blair loose ball foul (Chris Andersen draws the foul)'
p4531
aS'13-6'
p4532
aS'\xc2\xa0'
p4533
aa(lp4534
S'5:54'
p4535
aS'\xc2\xa0'
p4536
aS'13-6'
p4537
aS'Chris Andersen misses jumper'
p4538
aa(lp4539
S'5:54'
p4540
aS'\xc2\xa0'
p4541
aS'13-6'
p4542
aS'Denver offensive team rebound'
p4543
aa(lp4544
S'5:54'
p4545
aS'Matt Bonner enters the game for DeJuan Blair'
p4546
aS'13-6'
p4547
aS'\xc2\xa0'
p4548
aa(lp4549
S'5:37'
p4550
aS'Tony Parker shooting foul (Andre Miller draws the foul)'
p4551
aS'13-6'
p4552
aS'\xc2\xa0'
p4553
aa(lp4554
S'5:37'
p4555
aS'\xc2\xa0'
p4556
aS'13-6'
p4557
aS'Andre Miller misses free throw 1 of 2'
p4558
aa(lp4559
S'5:37'
p4560
aS'\xc2\xa0'
p4561
aS'13-6'
p4562
aS'Denver offensive team rebound'
p4563
aa(lp4564
S'5:37'
p4565
aS'\xc2\xa0'
p4566
aS'13-6'
p4567
aS'Jordan Hamilton enters the game for Arron Afflalo'
p4568
aa(lp4569
S'5:37'
p4570
aS'\xc2\xa0'
p4571
aS'13-7'
p4572
aS'Andre Miller makes free throw 2 of 2'
p4573
aa(lp4574
S'5:20'
p4575
aS'Kawhi Leonard makes layup (Tim Duncan assists)'
p4576
aS'15-7'
p4577
aS'\xc2\xa0'
p4578
aa(lp4579
S'5:11'
p4580
aS'\xc2\xa0'
p4581
aS'15-7'
p4582
aS'Andre Miller misses 9-foot running jumper'
p4583
aa(lp4584
S'5:11'
p4585
aS'Tim Duncan defensive rebound'
p4586
aS'15-7'
p4587
aS'\xc2\xa0'
p4588
aa(lp4589
S'5:01'
p4590
aS'Matt Bonner makes 23-foot three point jumper (Tony Parker assists)'
p4591
aS'18-7'
p4592
aS'\xc2\xa0'
p4593
aa(lp4594
S'4:48'
p4595
aS'\xc2\xa0'
p4596
aS'18-7'
p4597
aS'Corey Brewer misses 19-foot jumper'
p4598
aa(lp4599
S'4:48'
p4600
aS'Kawhi Leonard defensive rebound'
p4601
aS'18-7'
p4602
aS'\xc2\xa0'
p4603
aa(lp4604
S'4:35'
p4605
aS'Daniel Green makes 9-foot running jumper'
p4606
aS'20-7'
p4607
aS'\xc2\xa0'
p4608
aa(lp4609
S'4:35'
p4610
aS'\xc2\xa0'
p4611
aS'20-7'
p4612
aS'Jordan Hamilton shooting foul (Daniel Green draws the foul)'
p4613
aa(lp4614
S'4:35'
p4615
aS'\xc2\xa0'
p4616
aS'20-7'
p4617
aS'Al Harrington enters the game for Kenneth Faried'
p4618
aa(lp4619
S'4:35'
p4620
aS'Richard Jefferson enters the game for Tony Parker'
p4621
aS'20-7'
p4622
aS'\xc2\xa0'
p4623
aa(lp4624
S'4:35'
p4625
aS'Gary Neal enters the game for Kawhi Leonard'
p4626
aS'20-7'
p4627
aS'\xc2\xa0'
p4628
aa(lp4629
S'4:35'
p4630
aS'Daniel Green makes free throw 1 of 1'
p4631
aS'21-7'
p4632
aS'\xc2\xa0'
p4633
aa(lp4634
S'4:20'
p4635
aS'\xc2\xa0'
p4636
aS'21-7'
p4637
aS'Jordan Hamilton lost ball (Daniel Green steals)'
p4638
aa(lp4639
S'4:16'
p4640
aS'Daniel Green makes driving layup (Matt Bonner assists)'
p4641
aS'23-7'
p4642
aS'\xc2\xa0'
p4643
aa(lp4644
S'4:16'
p4645
aS'\xc2\xa0'
p4646
aS'23-7'
p4647
aS'Jordan Hamilton foul (Daniel Green draws the foul)'
p4648
aa(lp4649
S'4:16'
p4650
aS'Denver full timeout'
p4651
aa(lp4652
S'4:16'
p4653
aS'Daniel Green makes free throw 1 of 1'
p4654
aS'24-7'
p4655
aS'\xc2\xa0'
p4656
aa(lp4657
S'3:58'
p4658
aS'Daniel Green defensive rebound'
p4659
aS'24-7'
p4660
aS'\xc2\xa0'
p4661
aa(lp4662
S'3:44'
p4663
aS'Daniel Green misses driving layup'
p4664
aS'24-7'
p4665
aS'\xc2\xa0'
p4666
aa(lp4667
S'3:43'
p4668
aS'\xc2\xa0'
p4669
aS'24-7'
p4670
aS'Jordan Hamilton defensive rebound'
p4671
aa(lp4672
S'3:34'
p4673
aS'\xc2\xa0'
p4674
aS'24-7'
p4675
aS'Jordan Hamilton misses 23-foot three point jumper'
p4676
aa(lp4677
S'3:33'
p4678
aS'Richard Jefferson defensive rebound'
p4679
aS'24-7'
p4680
aS'\xc2\xa0'
p4681
aa(lp4682
S'3:27'
p4683
aS'Gary Neal misses 15-foot jumper'
p4684
aS'24-7'
p4685
aS'\xc2\xa0'
p4686
aa(lp4687
S'3:26'
p4688
aS'Gary Neal offensive rebound'
p4689
aS'24-7'
p4690
aS'\xc2\xa0'
p4691
aa(lp4692
S'3:15'
p4693
aS'Tim Duncan misses running jumper'
p4694
aS'24-7'
p4695
aS'\xc2\xa0'
p4696
aa(lp4697
S'3:06'
p4698
aS'San Antonio defensive team rebound'
p4699
aS'24-7'
p4700
aS'\xc2\xa0'
p4701
aa(lp4702
S'3:06'
p4703
aS'\xc2\xa0'
p4704
aS'24-7'
p4705
aS'Arron Afflalo enters the game for Corey Brewer'
p4706
aa(lp4707
S'3:06'
p4708
aS'DeJuan Blair enters the game for Tim Duncan'
p4709
aS'24-7'
p4710
aS'\xc2\xa0'
p4711
aa(lp4712
S'2:47'
p4713
aS'\xc2\xa0'
p4714
aS'24-7'
p4715
aS'Jordan Hamilton misses 25-foot three point jumper'
p4716
aa(lp4717
S'2:46'
p4718
aS'Gary Neal defensive rebound'
p4719
aS'24-7'
p4720
aS'\xc2\xa0'
p4721
aa(lp4722
S'2:39'
p4723
aS'Richard Jefferson misses 23-foot three point jumper'
p4724
aS'24-7'
p4725
aS'\xc2\xa0'
p4726
aa(lp4727
S'2:38'
p4728
aS'DeJuan Blair offensive rebound'
p4729
aS'24-7'
p4730
aS'\xc2\xa0'
p4731
aa(lp4732
S'2:28'
p4733
aS'\xc2\xa0'
p4734
aS'24-7'
p4735
aS'Chris Andersen personal foul (Gary Neal draws the foul)'
p4736
aa(lp4737
S'2:17'
p4738
aS'DeJuan Blair makes layup (Gary Neal assists)'
p4739
aS'26-7'
p4740
aS'\xc2\xa0'
p4741
aa(lp4742
S'2:04'
p4743
aS'DeJuan Blair illegal defense foul'
p4744
aS'26-7'
p4745
aS'\xc2\xa0'
p4746
aa(lp4747
S'2:04'
p4748
aS'\xc2\xa0'
p4749
aS'26-8'
p4750
aS'Arron Afflalo makes technical free throw'
p4751
aa(lp4752
S'1:49'
p4753
aS'\xc2\xa0'
p4754
aS'26-11'
p4755
aS'Arron Afflalo makes three point jumper (Andre Miller assists)'
p4756
aa(lp4757
S'1:29'
p4758
aS'Gary Neal misses 8-foot two point shot'
p4759
aS'26-11'
p4760
aS'\xc2\xa0'
p4761
aa(lp4762
S'1:28'
p4763
aS'\xc2\xa0'
p4764
aS'26-11'
p4765
aS'Jordan Hamilton defensive rebound'
p4766
aa(lp4767
S'1:21'
p4768
aS'\xc2\xa0'
p4769
aS'26-11'
p4770
aS'Jordan Hamilton misses 25-foot three point jumper'
p4771
aa(lp4772
S'1:20'
p4773
aS'Matt Bonner defensive rebound'
p4774
aS'26-11'
p4775
aS'\xc2\xa0'
p4776
aa(lp4777
S'1:10'
p4778
aS'DeJuan Blair makes 12-foot running jumper (Gary Neal assists)'
p4779
aS'28-11'
p4780
aS'\xc2\xa0'
p4781
aa(lp4782
S'0:49'
p4783
aS'\xc2\xa0'
p4784
aS'28-13'
p4785
aS'Al Harrington makes 5-foot two point shot'
p4786
aa(lp4787
S'0:30'
p4788
aS'Gary Neal makes 26-foot three point jumper'
p4789
aS'31-13'
p4790
aS'\xc2\xa0'
p4791
aa(lp4792
S'0:08'
p4793
aS'\xc2\xa0'
p4794
aS'31-15'
p4795
aS'Al Harrington makes 12-foot two point shot'
p4796
aa(lp4797
S'0:01'
p4798
aS"Chris Andersen blocks Gary Neal's 2-foot two point shot"
p4799
aS'31-15'
p4800
aS'\xc2\xa0'
p4801
aa(lp4802
S'0:00'
p4803
aS'\xc2\xa0'
p4804
aS'31-15'
p4805
aS'Arron Afflalo defensive rebound'
p4806
aa(lp4807
S'0:00'
p4808
aS'End of the 1st Quarter'
p4809
aa(lp4810
S'3:59'
p4811
aS'\xc2\xa0'
p4812
aS'31-15'
p4813
aS'Al Harrington misses 12-foot two point shot'
p4814
aa(lp4815
S'3:14'
p4816
aS'Daniel Green offensive rebound'
p4817
aS'31-15'
p4818
aS'\xc2\xa0'
p4819
aa(lp4820
S'3:14'
p4821
aS'Daniel Green misses tip shot'
p4822
aS'31-15'
p4823
aS'\xc2\xa0'
p4824
aa(lp4825
S'2nd Quarter Summary'
p4826
aa(lp4827
a(lp4828
S'12:00'
p4829
aS'Start of the 2nd Quarter'
p4830
aa(lp4831
S'11:44'
p4832
aS"Chris Andersen blocks DeJuan Blair's layup"
p4833
aS'31-15'
p4834
aS'\xc2\xa0'
p4835
aa(lp4836
S'11:41'
p4837
aS'\xc2\xa0'
p4838
aS'31-15'
p4839
aS'Chris Andersen defensive rebound'
p4840
aa(lp4841
S'11:27'
p4842
aS'\xc2\xa0'
p4843
aS'31-15'
p4844
aS'Julyan Stone misses 26-foot three point jumper'
p4845
aa(lp4846
S'11:26'
p4847
aS'Richard Jefferson defensive rebound'
p4848
aS'31-15'
p4849
aS'\xc2\xa0'
p4850
aa(lp4851
S'11:18'
p4852
aS'DeJuan Blair makes 10-foot running jumper (Matt Bonner assists)'
p4853
aS'33-15'
p4854
aS'\xc2\xa0'
p4855
aa(lp4856
S'11:00'
p4857
aS'\xc2\xa0'
p4858
aS'33-15'
p4859
aS'Al Harrington misses driving layup'
p4860
aa(lp4861
S'11:00'
p4862
aS'DeJuan Blair defensive rebound'
p4863
aS'33-15'
p4864
aS'\xc2\xa0'
p4865
aa(lp4866
S'10:45'
p4867
aS'James Anderson misses 25-foot three point jumper'
p4868
aS'33-15'
p4869
aS'\xc2\xa0'
p4870
aa(lp4871
S'10:45'
p4872
aS'\xc2\xa0'
p4873
aS'33-15'
p4874
aS'Julyan Stone defensive rebound'
p4875
aa(lp4876
S'10:44'
p4877
aS'Gary Neal shooting foul (Julyan Stone draws the foul)'
p4878
aS'33-15'
p4879
aS'\xc2\xa0'
p4880
aa(lp4881
S'10:44'
p4882
aS'\xc2\xa0'
p4883
aS'33-16'
p4884
aS'Julyan Stone makes free throw 1 of 2'
p4885
aa(lp4886
S'10:44'
p4887
aS'\xc2\xa0'
p4888
aS'33-17'
p4889
aS'Julyan Stone makes free throw 2 of 2'
p4890
aa(lp4891
S'10:23'
p4892
aS'Matt Bonner misses 25-foot three point jumper'
p4893
aS'33-17'
p4894
aS'\xc2\xa0'
p4895
aa(lp4896
S'10:22'
p4897
aS'\xc2\xa0'
p4898
aS'33-17'
p4899
aS'Chris Andersen defensive rebound'
p4900
aa(lp4901
S'10:15'
p4902
aS'\xc2\xa0'
p4903
aS'33-17'
p4904
aS'Arron Afflalo misses driving layup'
p4905
aa(lp4906
S'10:15'
p4907
aS'DeJuan Blair defensive rebound'
p4908
aS'33-17'
p4909
aS'\xc2\xa0'
p4910
aa(lp4911
S'9:57'
p4912
aS'DeJuan Blair makes layup'
p4913
aS'35-17'
p4914
aS'\xc2\xa0'
p4915
aa(lp4916
S'9:42'
p4917
aS'\xc2\xa0'
p4918
aS'35-17'
p4919
aS'Al Harrington misses 12-foot two point shot'
p4920
aa(lp4921
S'9:41'
p4922
aS'Richard Jefferson defensive rebound'
p4923
aS'35-17'
p4924
aS'\xc2\xa0'
p4925
aa(lp4926
S'9:33'
p4927
aS'Matt Bonner makes 24-foot three point jumper (Gary Neal assists)'
p4928
aS'38-17'
p4929
aS'\xc2\xa0'
p4930
aa(lp4931
S'9:21'
p4932
aS'James Anderson shooting foul (Julyan Stone draws the foul)'
p4933
aS'38-17'
p4934
aS'\xc2\xa0'
p4935
aa(lp4936
S'9:21'
p4937
aS'\xc2\xa0'
p4938
aS'38-18'
p4939
aS'Julyan Stone makes free throw 1 of 2'
p4940
aa(lp4941
S'9:21'
p4942
aS'\xc2\xa0'
p4943
aS'38-18'
p4944
aS'Kosta Koufos enters the game for Chris Andersen'
p4945
aa(lp4946
S'9:21'
p4947
aS'\xc2\xa0'
p4948
aS'38-19'
p4949
aS'Julyan Stone makes free throw 2 of 2'
p4950
aa(lp4951
S'9:03'
p4952
aS'DeJuan Blair makes two point shot (James Anderson assists)'
p4953
aS'40-19'
p4954
aS'\xc2\xa0'
p4955
aa(lp4956
S'8:40'
p4957
aS'\xc2\xa0'
p4958
aS'40-21'
p4959
aS'Arron Afflalo makes 22-foot jumper (Al Harrington assists)'
p4960
aa(lp4961
S'8:18'
p4962
aS'Matt Bonner misses 23-foot three point jumper'
p4963
aS'40-21'
p4964
aS'\xc2\xa0'
p4965
aa(lp4966
S'8:18'
p4967
aS'\xc2\xa0'
p4968
aS'40-21'
p4969
aS'Kosta Koufos defensive rebound'
p4970
aa(lp4971
S'8:08'
p4972
aS'Richard Jefferson personal block (Jordan Hamilton draws the foul)'
p4973
aS'40-21'
p4974
aS'\xc2\xa0'
p4975
aa(lp4976
S'8:08'
p4977
aS'\xc2\xa0'
p4978
aS'40-21'
p4979
aS' Official timeout'
p4980
aa(lp4981
S'1st Quarter Summary'
p4982
aa(lp4983
a(lp4984
S'3:12'
p4985
aS'\xc2\xa0'
p4986
aS'40-21'
p4987
aS'Jordan Hamilton defensive rebound'
p4988
aa(lp4989
S'3:11'
p4990
aS'\xc2\xa0'
p4991
aS'40-21'
p4992
aS'Jordan Hamilton post lost ball turnover (Daniel Green steals)'
p4993
aa(lp4994
S'3:10'
p4995
aS'Tim Duncan misses 12-foot two point shot'
p4996
aS'40-21'
p4997
aS'\xc2\xa0'
p4998
aa(lp4999
S'2nd Quarter Summary'
p5000
aa(lp5001
a(lp5002
S'8:08'
p5003
aS'Daniel Green enters the game for Richard Jefferson'
p5004
aS'40-21'
p5005
aS'\xc2\xa0'
p5006
aa(lp5007
S'8:08'
p5008
aS'Tony Parker enters the game for Gary Neal'
p5009
aS'40-21'
p5010
aS'\xc2\xa0'
p5011
aa(lp5012
S'7:52'
p5013
aS'\xc2\xa0'
p5014
aS'40-23'
p5015
aS'Al Harrington makes 18-foot jumper (Arron Afflalo assists)'
p5016
aa(lp5017
S'7:35'
p5018
aS'DeJuan Blair makes 6-foot two point shot (Tony Parker assists)'
p5019
aS'42-23'
p5020
aS'\xc2\xa0'
p5021
aa(lp5022
S'7:15'
p5023
aS'\xc2\xa0'
p5024
aS'42-23'
p5025
aS'Jordan Hamilton misses 5-foot running jumper'
p5026
aa(lp5027
S'7:13'
p5028
aS'\xc2\xa0'
p5029
aS'42-23'
p5030
aS'Kosta Koufos offensive rebound'
p5031
aa(lp5032
S'7:07'
p5033
aS'\xc2\xa0'
p5034
aS'42-23'
p5035
aS'Jordan Hamilton misses 24-foot three point jumper'
p5036
aa(lp5037
S'7:07'
p5038
aS'Daniel Green defensive rebound'
p5039
aS'42-23'
p5040
aS'\xc2\xa0'
p5041
aa(lp5042
S'6:58'
p5043
aS'Daniel Green makes 25-foot three point jumper (Tony Parker assists)'
p5044
aS'45-23'
p5045
aS'\xc2\xa0'
p5046
aa(lp5047
S'6:41'
p5048
aS'\xc2\xa0'
p5049
aS'45-23'
p5050
aS'Julyan Stone misses layup'
p5051
aa(lp5052
S'6:39'
p5053
aS'\xc2\xa0'
p5054
aS'45-25'
p5055
aS'Al Harrington makes two point shot'
p5056
aa(lp5057
S'6:39'
p5058
aS'\xc2\xa0'
p5059
aS'45-25'
p5060
aS'Al Harrington offensive rebound'
p5061
aa(lp5062
S'6:26'
p5063
aS'Matt Bonner makes 23-foot three point jumper (Daniel Green assists)'
p5064
aS'48-25'
p5065
aS'\xc2\xa0'
p5066
aa(lp5067
S'6:11'
p5068
aS'DeJuan Blair shooting foul (Arron Afflalo draws the foul)'
p5069
aS'48-25'
p5070
aS'\xc2\xa0'
p5071
aa(lp5072
S'6:11'
p5073
aS'\xc2\xa0'
p5074
aS'48-26'
p5075
aS'Arron Afflalo makes free throw 1 of 2'
p5076
aa(lp5077
S'6:11'
p5078
aS'\xc2\xa0'
p5079
aS'48-26'
p5080
aS'Corey Brewer enters the game for Jordan Hamilton'
p5081
aa(lp5082
S'6:11'
p5083
aS'Tim Duncan enters the game for DeJuan Blair'
p5084
aS'48-26'
p5085
aS'\xc2\xa0'
p5086
aa(lp5087
S'6:11'
p5088
aS'\xc2\xa0'
p5089
aS'48-26'
p5090
aS'Arron Afflalo misses free throw 2 of 2'
p5091
aa(lp5092
S'6:09'
p5093
aS'\xc2\xa0'
p5094
aS'48-26'
p5095
aS'Kosta Koufos offensive rebound'
p5096
aa(lp5097
S'6:07'
p5098
aS'\xc2\xa0'
p5099
aS'48-28'
p5100
aS'Kosta Koufos makes layup'
p5101
aa(lp5102
S'5:46'
p5103
aS'Matt Bonner misses 25-foot three point jumper'
p5104
aS'48-28'
p5105
aS'\xc2\xa0'
p5106
aa(lp5107
S'5:45'
p5108
aS'\xc2\xa0'
p5109
aS'48-28'
p5110
aS'Arron Afflalo defensive rebound'
p5111
aa(lp5112
S'5:35'
p5113
aS'\xc2\xa0'
p5114
aS'48-28'
p5115
aS"Tim Duncan blocks Kosta Koufos's layup"
p5116
aa(lp5117
S'5:33'
p5118
aS'Tim Duncan defensive rebound'
p5119
aS'48-28'
p5120
aS'\xc2\xa0'
p5121
aa(lp5122
S'5:26'
p5123
aS'Daniel Green misses 26-foot three point jumper'
p5124
aS'48-28'
p5125
aS'\xc2\xa0'
p5126
aa(lp5127
S'5:24'
p5128
aS'\xc2\xa0'
p5129
aS'48-28'
p5130
aS'Al Harrington defensive rebound'
p5131
aa(lp5132
S'5:16'
p5133
aS'\xc2\xa0'
p5134
aS'48-28'
p5135
aS"Tim Duncan blocks Al Harrington's driving layup"
p5136
aa(lp5137
S'5:15'
p5138
aS'Tim Duncan defensive rebound'
p5139
aS'48-28'
p5140
aS'\xc2\xa0'
p5141
aa(lp5142
S'5:07'
p5143
aS'Tim Duncan offensive foul (Corey Brewer draws the foul)'
p5144
aS'48-28'
p5145
aS'\xc2\xa0'
p5146
aa(lp5147
S'5:07'
p5148
aS'Tim Duncan turnover'
p5149
aS'48-28'
p5150
aS'\xc2\xa0'
p5151
aa(lp5152
S'5:07'
p5153
aS'Denver full timeout'
p5154
aa(lp5155
S'5:07'
p5156
aS'Richard Jefferson enters the game for Matt Bonner'
p5157
aS'48-28'
p5158
aS'\xc2\xa0'
p5159
aa(lp5160
S'5:07'
p5161
aS'\xc2\xa0'
p5162
aS'48-28'
p5163
aS'Kenneth Faried enters the game for Al Harrington'
p5164
aa(lp5165
S'4:56'
p5166
aS'\xc2\xa0'
p5167
aS'48-28'
p5168
aS'Kenneth Faried offensive foul (Daniel Green draws the foul)'
p5169
aa(lp5170
S'4:56'
p5171
aS'\xc2\xa0'
p5172
aS'48-28'
p5173
aS'Kenneth Faried turnover'
p5174
aa(lp5175
S'4:41'
p5176
aS'Richard Jefferson misses 19-foot jumper'
p5177
aS'48-28'
p5178
aS'\xc2\xa0'
p5179
aa(lp5180
S'4:41'
p5181
aS'San Antonio defensive team rebound'
p5182
aS'48-28'
p5183
aS'\xc2\xa0'
p5184
aa(lp5185
S'4:26'
p5186
aS'\xc2\xa0'
p5187
aS'48-30'
p5188
aS'Julyan Stone makes 18-foot jumper (Kosta Koufos assists)'
p5189
aa(lp5190
S'4:03'
p5191
aS'Tony Parker makes 23-foot three point jumper (Richard Jefferson assists)'
p5192
aS'51-30'
p5193
aS'\xc2\xa0'
p5194
aa(lp5195
S'3:53'
p5196
aS'\xc2\xa0'
p5197
aS'51-30'
p5198
aS'Kosta Koufos bad pass'
p5199
aa(lp5200
S'3:53'
p5201
aS'Gary Neal enters the game for James Anderson'
p5202
aS'51-30'
p5203
aS'\xc2\xa0'
p5204
aa(lp5205
S'3:53'
p5206
aS'\xc2\xa0'
p5207
aS'51-30'
p5208
aS'Andre Miller enters the game for Julyan Stone'
p5209
aa(lp5210
S'3:39'
p5211
aS'\xc2\xa0'
p5212
aS'51-30'
p5213
aS'Kenneth Faried shooting foul (Richard Jefferson draws the foul)'
p5214
aa(lp5215
S'3:39'
p5216
aS'Richard Jefferson makes free throw 1 of 2'
p5217
aS'52-30'
p5218
aS'\xc2\xa0'
p5219
aa(lp5220
S'3:39'
p5221
aS'Richard Jefferson makes free throw 2 of 2'
p5222
aS'53-30'
p5223
aS'\xc2\xa0'
p5224
aa(lp5225
S'3:21'
p5226
aS'\xc2\xa0'
p5227
aS'53-32'
p5228
aS'Andre Miller makes jumper'
p5229
aa(lp5230
S'3:11'
p5231
aS'Richard Jefferson makes 26-foot three point jumper (Tony Parker assists)'
p5232
aS'56-32'
p5233
aS'\xc2\xa0'
p5234
aa(lp5235
S'2:46'
p5236
aS'\xc2\xa0'
p5237
aS'56-32'
p5238
aS'Kenneth Faried lost ball (Tony Parker steals)'
p5239
aa(lp5240
S'2:40'
p5241
aS'Tony Parker makes 6-foot jumper'
p5242
aS'58-32'
p5243
aS'\xc2\xa0'
p5244
aa(lp5245
S'2:32'
p5246
aS'\xc2\xa0'
p5247
aS'58-32'
p5248
aS'Corey Brewer misses driving layup'
p5249
aa(lp5250
S'2:31'
p5251
aS'Tim Duncan defensive rebound'
p5252
aS'58-32'
p5253
aS'\xc2\xa0'
p5254
aa(lp5255
S'2:24'
p5256
aS'\xc2\xa0'
p5257
aS'58-32'
p5258
aS'Arron Afflalo shooting foul (Tim Duncan draws the foul)'
p5259
aa(lp5260
S'2:24'
p5261
aS'San Antonio full timeout'
p5262
aa(lp5263
S'2:24'
p5264
aS'\xc2\xa0'
p5265
aS'58-32'
p5266
aS'Jordan Hamilton enters the game for Corey Brewer'
p5267
aa(lp5268
S'2:24'
p5269
aS'\xc2\xa0'
p5270
aS'58-32'
p5271
aS'Timofey Mozgov enters the game for Kosta Koufos'
p5272
aa(lp5273
S'2:24'
p5274
aS'Tim Duncan makes free throw 1 of 2'
p5275
aS'59-32'
p5276
aS'\xc2\xa0'
p5277
aa(lp5278
S'2:24'
p5279
aS'Tim Duncan makes free throw 2 of 2'
p5280
aS'60-32'
p5281
aS'\xc2\xa0'
p5282
aa(lp5283
S'2:00'
p5284
aS'\xc2\xa0'
p5285
aS'60-35'
p5286
aS'Andre Miller makes 26-foot three point jumper (Jordan Hamilton assists)'
p5287
aa(lp5288
S'1:50'
p5289
aS'Gary Neal misses 26-foot three point jumper'
p5290
aS'60-35'
p5291
aS'\xc2\xa0'
p5292
aa(lp5293
S'1:47'
p5294
aS'\xc2\xa0'
p5295
aS'60-35'
p5296
aS'Kenneth Faried defensive rebound'
p5297
aa(lp5298
S'1:37'
p5299
aS'\xc2\xa0'
p5300
aS'60-35'
p5301
aS'Timofey Mozgov misses 9-foot hook shot'
p5302
aa(lp5303
S'1:35'
p5304
aS'Tim Duncan defensive rebound'
p5305
aS'60-35'
p5306
aS'\xc2\xa0'
p5307
aa(lp5308
S'1:29'
p5309
aS'Daniel Green makes dunk (Tony Parker assists)'
p5310
aS'62-35'
p5311
aS'\xc2\xa0'
p5312
aa(lp5313
S'1:10'
p5314
aS'\xc2\xa0'
p5315
aS'62-37'
p5316
aS'Andre Miller makes 17-foot jumper'
p5317
aa(lp5318
S'0:54'
p5319
aS'Tony Parker makes 24-foot three point jumper'
p5320
aS'65-37'
p5321
aS'\xc2\xa0'
p5322
aa(lp5323
S'0:44'
p5324
aS'\xc2\xa0'
p5325
aS'65-39'
p5326
aS'Andre Miller makes 15-foot jumper'
p5327
aa(lp5328
S'0:25'
p5329
aS'Richard Jefferson misses 24-foot three point jumper'
p5330
aS'65-39'
p5331
aS'\xc2\xa0'
p5332
aa(lp5333
S'0:24'
p5334
aS'Tim Duncan offensive rebound'
p5335
aS'65-39'
p5336
aS'\xc2\xa0'
p5337
aa(lp5338
S'0:09'
p5339
aS'\xc2\xa0'
p5340
aS'65-39'
p5341
aS'Andre Miller personal take (Tony Parker draws the foul)'
p5342
aa(lp5343
S'0:09'
p5344
aS'\xc2\xa0'
p5345
aS'65-39'
p5346
aS'Al Harrington enters the game for Kenneth Faried'
p5347
aa(lp5348
S'0:02'
p5349
aS'Tim Duncan misses two point shot'
p5350
aS'65-39'
p5351
aS'\xc2\xa0'
p5352
aa(lp5353
S'0:01'
p5354
aS'\xc2\xa0'
p5355
aS'65-39'
p5356
aS'Al Harrington defensive rebound'
p5357
aa(lp5358
S'0:00'
p5359
aS'End of the 2nd Quarter'
p5360
aa(lp5361
S'3rd Quarter Summary'
p5362
aa(lp5363
a(lp5364
S'12:00'
p5365
aS'Start of the 3rd Quarter'
p5366
aa(lp5367
S'11:41'
p5368
aS'DeJuan Blair makes layup (Tim Duncan assists)'
p5369
aS'67-39'
p5370
aS'\xc2\xa0'
p5371
aa(lp5372
S'11:22'
p5373
aS'\xc2\xa0'
p5374
aS'67-41'
p5375
aS'Corey Brewer makes layup (Andre Miller assists)'
p5376
aa(lp5377
S'11:07'
p5378
aS'DeJuan Blair misses 8-foot two point shot'
p5379
aS'67-41'
p5380
aS'\xc2\xa0'
p5381
aa(lp5382
S'11:07'
p5383
aS'\xc2\xa0'
p5384
aS'67-41'
p5385
aS'Kenneth Faried defensive rebound'
p5386
aa(lp5387
S'11:00'
p5388
aS'\xc2\xa0'
p5389
aS'67-43'
p5390
aS'Corey Brewer makes 3-foot running jumper (Kenneth Faried assists)'
p5391
aa(lp5392
S'10:38'
p5393
aS'\xc2\xa0'
p5394
aS'67-43'
p5395
aS'Timofey Mozgov shooting foul (Daniel Green draws the foul)'
p5396
aa(lp5397
S'10:38'
p5398
aS'Daniel Green makes free throw 1 of 2'
p5399
aS'68-43'
p5400
aS'\xc2\xa0'
p5401
aa(lp5402
S'10:38'
p5403
aS'Daniel Green misses free throw 2 of 2'
p5404
aS'68-43'
p5405
aS'\xc2\xa0'
p5406
aa(lp5407
S'10:37'
p5408
aS'\xc2\xa0'
p5409
aS'68-43'
p5410
aS'Timofey Mozgov defensive rebound'
p5411
aa(lp5412
S'10:25'
p5413
aS'Daniel Green shooting foul (Andre Miller draws the foul)'
p5414
aS'68-43'
p5415
aS'\xc2\xa0'
p5416
aa(lp5417
S'10:25'
p5418
aS'\xc2\xa0'
p5419
aS'68-44'
p5420
aS'Andre Miller makes free throw 1 of 2'
p5421
aa(lp5422
S'10:25'
p5423
aS'\xc2\xa0'
p5424
aS'68-45'
p5425
aS'Andre Miller makes free throw 2 of 2'
p5426
aa(lp5427
S'10:10'
p5428
aS'Tony Parker makes 19-foot jumper'
p5429
aS'70-45'
p5430
aS'\xc2\xa0'
p5431
aa(lp5432
S'9:53'
p5433
aS'\xc2\xa0'
p5434
aS'70-45'
p5435
aS'Arron Afflalo misses 19-foot jumper'
p5436
aa(lp5437
S'9:52'
p5438
aS'\xc2\xa0'
p5439
aS'70-45'
p5440
aS'Kenneth Faried offensive rebound'
p5441
aa(lp5442
S'9:48'
p5443
aS'\xc2\xa0'
p5444
aS'70-47'
p5445
aS'Timofey Mozgov makes layup (Kenneth Faried assists)'
p5446
aa(lp5447
S'9:26'
p5448
aS'Tim Duncan makes 17-foot two point shot'
p5449
aS'72-47'
p5450
aS'\xc2\xa0'
p5451
aa(lp5452
S'9:14'
p5453
aS'\xc2\xa0'
p5454
aS'72-47'
p5455
aS'Timofey Mozgov step out of bounds turnover'
p5456
aa(lp5457
S'9:03'
p5458
aS'\xc2\xa0'
p5459
aS'72-47'
p5460
aS'Andre Miller personal block (Tony Parker draws the foul)'
p5461
aa(lp5462
S'8:52'
p5463
aS'Tim Duncan misses 16-foot two point shot'
p5464
aS'72-47'
p5465
aS'\xc2\xa0'
p5466
aa(lp5467
S'8:51'
p5468
aS'\xc2\xa0'
p5469
aS'72-47'
p5470
aS'Kenneth Faried defensive rebound'
p5471
aa(lp5472
S'8:45'
p5473
aS'\xc2\xa0'
p5474
aS'72-49'
p5475
aS'Corey Brewer makes 7-foot running jumper (Kenneth Faried assists)'
p5476
aa(lp5477
S'8:33'
p5478
aS'Richard Jefferson makes 25-foot three point jumper (Tony Parker assists)'
p5479
aS'75-49'
p5480
aS'\xc2\xa0'
p5481
aa(lp5482
S'8:18'
p5483
aS'\xc2\xa0'
p5484
aS'75-49'
p5485
aS"DeJuan Blair blocks Kenneth Faried's layup"
p5486
aa(lp5487
S'8:17'
p5488
aS'Richard Jefferson defensive rebound'
p5489
aS'75-49'
p5490
aS'\xc2\xa0'
p5491
aa(lp5492
S'8:07'
p5493
aS'DeJuan Blair makes two point shot (Tony Parker assists)'
p5494
aS'77-49'
p5495
aS'\xc2\xa0'
p5496
aa(lp5497
S'7:52'
p5498
aS'Richard Jefferson shooting foul (Timofey Mozgov draws the foul)'
p5499
aS'77-49'
p5500
aS'\xc2\xa0'
p5501
aa(lp5502
S'7:52'
p5503
aS'\xc2\xa0'
p5504
aS'77-50'
p5505
aS'Timofey Mozgov makes free throw 1 of 2'
p5506
aa(lp5507
S'7:52'
p5508
aS'\xc2\xa0'
p5509
aS'77-51'
p5510
aS'Timofey Mozgov makes free throw 2 of 2'
p5511
aa(lp5512
S'7:41'
p5513
aS'Tim Duncan makes 18-foot jumper (Tony Parker assists)'
p5514
aS'79-51'
p5515
aS'\xc2\xa0'
p5516
aa(lp5517
S'7:26'
p5518
aS'Daniel Green personal foul (Andre Miller draws the foul)'
p5519
aS'79-51'
p5520
aS'\xc2\xa0'
p5521
aa(lp5522
S'7:16'
p5523
aS'\xc2\xa0'
p5524
aS'79-53'
p5525
aS'Andre Miller makes 19-foot jumper'
p5526
aa(lp5527
S'7:05'
p5528
aS'\xc2\xa0'
p5529
aS'79-53'
p5530
aS'Andre Miller personal block (Tony Parker draws the foul)'
p5531
aa(lp5532
S'6:54'
p5533
aS'Tony Parker misses 25-foot three point jumper'
p5534
aS'79-53'
p5535
aS'\xc2\xa0'
p5536
aa(lp5537
S'6:52'
p5538
aS'\xc2\xa0'
p5539
aS'79-53'
p5540
aS'Timofey Mozgov defensive rebound'
p5541
aa(lp5542
S'6:48'
p5543
aS'\xc2\xa0'
p5544
aS'79-55'
p5545
aS'Kenneth Faried makes two point shot (Andre Miller assists)'
p5546
aa(lp5547
S'6:48'
p5548
aS'San Antonio full timeout'
p5549
aa(lp5550
S'6:28'
p5551
aS'Richard Jefferson shooting foul (Corey Brewer draws the foul)'
p5552
aS'79-55'
p5553
aS'\xc2\xa0'
p5554
aa(lp5555
S'6:28'
p5556
aS'\xc2\xa0'
p5557
aS'79-56'
p5558
aS'Corey Brewer makes free throw 1 of 2'
p5559
aa(lp5560
S'6:28'
p5561
aS'Matt Bonner enters the game for DeJuan Blair'
p5562
aS'79-56'
p5563
aS'\xc2\xa0'
p5564
aa(lp5565
S'6:28'
p5566
aS'\xc2\xa0'
p5567
aS'79-57'
p5568
aS'Corey Brewer makes free throw 2 of 2'
p5569
aa(lp5570
S'6:11'
p5571
aS'Matt Bonner makes 23-foot three point jumper (Tony Parker assists)'
p5572
aS'82-57'
p5573
aS'\xc2\xa0'
p5574
aa(lp5575
S'5:48'
p5576
aS'\xc2\xa0'
p5577
aS'82-57'
p5578
aS'Timofey Mozgov misses jumper'
p5579
aa(lp5580
S'5:48'
p5581
aS'Richard Jefferson defensive rebound'
p5582
aS'82-57'
p5583
aS'\xc2\xa0'
p5584
aa(lp5585
S'5:35'
p5586
aS'\xc2\xa0'
p5587
aS'82-57'
p5588
aS'Timofey Mozgov shooting foul (Tim Duncan draws the foul)'
p5589
aa(lp5590
S'5:35'
p5591
aS'Tim Duncan makes free throw 1 of 2'
p5592
aS'83-57'
p5593
aS'\xc2\xa0'
p5594
aa(lp5595
S'5:35'
p5596
aS'Gary Neal enters the game for Daniel Green'
p5597
aS'83-57'
p5598
aS'\xc2\xa0'
p5599
aa(lp5600
S'5:35'
p5601
aS'Tim Duncan makes free throw 2 of 2'
p5602
aS'84-57'
p5603
aS'\xc2\xa0'
p5604
aa(lp5605
S'5:18'
p5606
aS'\xc2\xa0'
p5607
aS'84-57'
p5608
aS'Arron Afflalo misses 10-foot two point shot'
p5609
aa(lp5610
S'5:16'
p5611
aS'\xc2\xa0'
p5612
aS'84-59'
p5613
aS'Timofey Mozgov makes 2-foot two point shot'
p5614
aa(lp5615
S'5:18'
p5616
aS'\xc2\xa0'
p5617
aS'84-59'
p5618
aS'Timofey Mozgov offensive rebound'
p5619
aa(lp5620
S'5:03'
p5621
aS'\xc2\xa0'
p5622
aS'84-59'
p5623
aS'Andre Miller personal foul (Tony Parker draws the foul)'
p5624
aa(lp5625
S'5:03'
p5626
aS'Tony Parker makes free throw 1 of 2'
p5627
aS'85-59'
p5628
aS'\xc2\xa0'
p5629
aa(lp5630
S'5:03'
p5631
aS'Tony Parker makes free throw 2 of 2'
p5632
aS'86-59'
p5633
aS'\xc2\xa0'
p5634
aa(lp5635
S'4:43'
p5636
aS'\xc2\xa0'
p5637
aS'86-62'
p5638
aS'Arron Afflalo makes 24-foot three point jumper (Andre Miller assists)'
p5639
aa(lp5640
S'4:33'
p5641
aS'Tim Duncan offensive foul (Kenneth Faried draws the foul)'
p5642
aS'86-62'
p5643
aS'\xc2\xa0'
p5644
aa(lp5645
S'4:33'
p5646
aS'Tim Duncan turnover'
p5647
aS'86-62'
p5648
aS'\xc2\xa0'
p5649
aa(lp5650
S'4:33'
p5651
aS'\xc2\xa0'
p5652
aS'86-62'
p5653
aS'Al Harrington enters the game for Kenneth Faried'
p5654
aa(lp5655
S'4:33'
p5656
aS'\xc2\xa0'
p5657
aS'86-62'
p5658
aS'Jordan Hamilton enters the game for Corey Brewer'
p5659
aa(lp5660
S'4:13'
p5661
aS'\xc2\xa0'
p5662
aS'86-62'
p5663
aS'Arron Afflalo misses 25-foot three point jumper'
p5664
aa(lp5665
S'4:11'
p5666
aS'\xc2\xa0'
p5667
aS'86-62'
p5668
aS'Arron Afflalo offensive rebound'
p5669
aa(lp5670
S'4:01'
p5671
aS'\xc2\xa0'
p5672
aS'86-64'
p5673
aS'Andre Miller makes two point shot'
p5674
aa(lp5675
S'3:35'
p5676
aS'Tony Parker misses 7-foot jumper'
p5677
aS'86-64'
p5678
aS'\xc2\xa0'
p5679
aa(lp5680
S'3:34'
p5681
aS'\xc2\xa0'
p5682
aS'86-64'
p5683
aS'Jordan Hamilton defensive rebound'
p5684
aa(lp5685
S'3:30'
p5686
aS'\xc2\xa0'
p5687
aS'86-66'
p5688
aS'Arron Afflalo makes two point shot (Andre Miller assists)'
p5689
aa(lp5690
S'3:16'
p5691
aS'Tim Duncan misses 16-foot jumper'
p5692
aS'86-66'
p5693
aS'\xc2\xa0'
p5694
aa(lp5695
S'3:15'
p5696
aS'\xc2\xa0'
p5697
aS'86-66'
p5698
aS'Jordan Hamilton defensive rebound'
p5699
aa(lp5700
S'3:06'
p5701
aS'\xc2\xa0'
p5702
aS'86-68'
p5703
aS'Timofey Mozgov makes slam dunk (Andre Miller assists)'
p5704
aa(lp5705
S'3:06'
p5706
aS'San Antonio full timeout'
p5707
aa(lp5708
S'6:33'
p5709
aS'Tony Parker post lost ball turnover (Arron Afflalo steals)'
p5710
aS'86-68'
p5711
aS'\xc2\xa0'
p5712
aa(lp5713
S'3:06'
p5714
aS'DeJuan Blair enters the game for Richard Jefferson'
p5715
aS'86-68'
p5716
aS'\xc2\xa0'
p5717
aa(lp5718
S'3:06'
p5719
aS'James Anderson enters the game for Tim Duncan'
p5720
aS'86-68'
p5721
aS'\xc2\xa0'
p5722
aa(lp5723
S'2:45'
p5724
aS'Gary Neal misses 14-foot running jumper'
p5725
aS'86-68'
p5726
aS'\xc2\xa0'
p5727
aa(lp5728
S'2:45'
p5729
aS'DeJuan Blair offensive rebound'
p5730
aS'86-68'
p5731
aS'\xc2\xa0'
p5732
aa(lp5733
S'2:42'
p5734
aS'DeJuan Blair makes layup'
p5735
aS'88-68'
p5736
aS'\xc2\xa0'
p5737
aa(lp5738
S'2:15'
p5739
aS'\xc2\xa0'
p5740
aS'88-68'
p5741
aS'Arron Afflalo misses 11-foot running jumper'
p5742
aa(lp5743
S'2:15'
p5744
aS'Tony Parker defensive rebound'
p5745
aS'88-68'
p5746
aS'\xc2\xa0'
p5747
aa(lp5748
S'2:13'
p5749
aS'\xc2\xa0'
p5750
aS'88-68'
p5751
aS'Al Harrington shooting foul (Tony Parker draws the foul)'
p5752
aa(lp5753
S'2:13'
p5754
aS'Tony Parker makes free throw 1 of 2'
p5755
aS'89-68'
p5756
aS'\xc2\xa0'
p5757
aa(lp5758
S'2:13'
p5759
aS'\xc2\xa0'
p5760
aS'89-68'
p5761
aS'Kosta Koufos enters the game for Timofey Mozgov'
p5762
aa(lp5763
S'2:13'
p5764
aS'Tony Parker makes free throw 2 of 2'
p5765
aS'90-68'
p5766
aS'\xc2\xa0'
p5767
aa(lp5768
S'2:02'
p5769
aS'Gary Neal kicked ball'
p5770
aS'90-68'
p5771
aS'\xc2\xa0'
p5772
aa(lp5773
S'2:02'
p5774
aS'Daniel Green enters the game for Tony Parker'
p5775
aS'90-68'
p5776
aS'\xc2\xa0'
p5777
aa(lp5778
S'1:54'
p5779
aS'\xc2\xa0'
p5780
aS'90-68'
p5781
aS'Andre Miller lost ball (Daniel Green steals)'
p5782
aa(lp5783
S'1:49'
p5784
aS'DeJuan Blair misses layup'
p5785
aS'90-68'
p5786
aS'\xc2\xa0'
p5787
aa(lp5788
S'1:47'
p5789
aS'\xc2\xa0'
p5790
aS'90-68'
p5791
aS'Kosta Koufos defensive rebound'
p5792
aa(lp5793
S'1:39'
p5794
aS'\xc2\xa0'
p5795
aS'90-68'
p5796
aS'Al Harrington bad pass (DeJuan Blair steals)'
p5797
aa(lp5798
S'1:32'
p5799
aS'Daniel Green makes layup (Gary Neal assists)'
p5800
aS'92-68'
p5801
aS'\xc2\xa0'
p5802
aa(lp5803
S'1:14'
p5804
aS'\xc2\xa0'
p5805
aS'92-68'
p5806
aS'Andre Miller misses 13-foot jumper'
p5807
aa(lp5808
S'1:13'
p5809
aS'Gary Neal defensive rebound'
p5810
aS'92-68'
p5811
aS'\xc2\xa0'
p5812
aa(lp5813
S'1:04'
p5814
aS'Gary Neal misses 26-foot three point jumper'
p5815
aS'92-68'
p5816
aS'\xc2\xa0'
p5817
aa(lp5818
S'1:02'
p5819
aS'\xc2\xa0'
p5820
aS'92-68'
p5821
aS'Kosta Koufos defensive rebound'
p5822
aa(lp5823
S'0:55'
p5824
aS'DeJuan Blair foul (Arron Afflalo draws the foul)'
p5825
aS'92-68'
p5826
aS'\xc2\xa0'
p5827
aa(lp5828
S'0:55'
p5829
aS'\xc2\xa0'
p5830
aS'92-69'
p5831
aS'Arron Afflalo makes free throw 1 of 2'
p5832
aa(lp5833
S'0:55'
p5834
aS'Cory Joseph enters the game for Gary Neal'
p5835
aS'92-69'
p5836
aS'\xc2\xa0'
p5837
aa(lp5838
S'0:55'
p5839
aS'\xc2\xa0'
p5840
aS'92-69'
p5841
aS'Julyan Stone enters the game for Andre Miller'
p5842
aa(lp5843
S'0:55'
p5844
aS'\xc2\xa0'
p5845
aS'92-70'
p5846
aS'Arron Afflalo makes free throw 2 of 2'
p5847
aa(lp5848
S'0:35'
p5849
aS'DeJuan Blair misses 6-foot hook shot'
p5850
aS'92-70'
p5851
aS'\xc2\xa0'
p5852
aa(lp5853
S'0:33'
p5854
aS'James Anderson misses two point shot'
p5855
aS'92-70'
p5856
aS'\xc2\xa0'
p5857
aa(lp5858
S'0:34'
p5859
aS'James Anderson offensive rebound'
p5860
aS'92-70'
p5861
aS'\xc2\xa0'
p5862
aa(lp5863
S'0:28'
p5864
aS'\xc2\xa0'
p5865
aS'92-70'
p5866
aS'Al Harrington defensive rebound'
p5867
aa(lp5868
S'0:23'
p5869
aS'\xc2\xa0'
p5870
aS'92-72'
p5871
aS'Kosta Koufos makes layup (Julyan Stone assists)'
p5872
aa(lp5873
S'0:04'
p5874
aS"Jordan Hamilton blocks James Anderson's two point shot"
p5875
aS'92-72'
p5876
aS'\xc2\xa0'
p5877
aa(lp5878
S'0:02'
p5879
aS'Daniel Green offensive rebound'
p5880
aS'92-72'
p5881
aS'\xc2\xa0'
p5882
aa(lp5883
S'0:01'
p5884
aS'Daniel Green misses three point jumper'
p5885
aS'92-72'
p5886
aS'\xc2\xa0'
p5887
aa(lp5888
S'0:00'
p5889
aS'San Antonio offensive team rebound'
p5890
aS'92-72'
p5891
aS'\xc2\xa0'
p5892
aa(lp5893
S'0:00'
p5894
aS'End of the 3rd Quarter'
p5895
aa(lp5896
S'4th Quarter Summary'
p5897
aa(lp5898
a(lp5899
S'12:00'
p5900
aS'Start of the 4th Quarter'
p5901
aa(lp5902
S'11:37'
p5903
aS'\xc2\xa0'
p5904
aS'92-72'
p5905
aS'Arron Afflalo misses 23-foot jumper'
p5906
aa(lp5907
S'11:34'
p5908
aS'Matt Bonner defensive rebound'
p5909
aS'92-72'
p5910
aS'\xc2\xa0'
p5911
aa(lp5912
S'11:12'
p5913
aS'Daniel Green bad pass (Julyan Stone steals)'
p5914
aS'92-72'
p5915
aS'\xc2\xa0'
p5916
aa(lp5917
S'11:07'
p5918
aS'\xc2\xa0'
p5919
aS'92-74'
p5920
aS'Arron Afflalo makes layup (Julyan Stone assists)'
p5921
aa(lp5922
S'10:45'
p5923
aS'Tony Parker bad pass (Kosta Koufos steals)'
p5924
aS'92-74'
p5925
aS'\xc2\xa0'
p5926
aa(lp5927
S'10:34'
p5928
aS'\xc2\xa0'
p5929
aS'92-76'
p5930
aS'Kosta Koufos makes layup (Julyan Stone assists)'
p5931
aa(lp5932
S'10:21'
p5933
aS'Tony Parker misses 16-foot jumper'
p5934
aS'92-76'
p5935
aS'\xc2\xa0'
p5936
aa(lp5937
S'10:18'
p5938
aS'\xc2\xa0'
p5939
aS'92-76'
p5940
aS'Jordan Hamilton defensive rebound'
p5941
aa(lp5942
S'10:02'
p5943
aS'\xc2\xa0'
p5944
aS'92-76'
p5945
aS'Julyan Stone misses 14-foot jumper'
p5946
aa(lp5947
S'10:00'
p5948
aS'James Anderson defensive rebound'
p5949
aS'92-76'
p5950
aS'\xc2\xa0'
p5951
aa(lp5952
S'9:52'
p5953
aS'Tony Parker makes driving layup'
p5954
aS'94-76'
p5955
aS'\xc2\xa0'
p5956
aa(lp5957
S'9:26'
p5958
aS'\xc2\xa0'
p5959
aS'94-76'
p5960
aS'Al Harrington misses 17-foot two point shot'
p5961
aa(lp5962
S'9:26'
p5963
aS'\xc2\xa0'
p5964
aS'94-76'
p5965
aS'Kosta Koufos misses tip shot'
p5966
aa(lp5967
S'9:26'
p5968
aS'\xc2\xa0'
p5969
aS'94-76'
p5970
aS'Kosta Koufos offensive rebound'
p5971
aa(lp5972
S'9:22'
p5973
aS'DeJuan Blair defensive rebound'
p5974
aS'94-76'
p5975
aS'\xc2\xa0'
p5976
aa(lp5977
S'9:22'
p5978
aS'Tony Parker bad pass'
p5979
aS'94-76'
p5980
aS'\xc2\xa0'
p5981
aa(lp5982
S'9:22'
p5983
aS'\xc2\xa0'
p5984
aS'94-76'
p5985
aS'Corey Brewer enters the game for Arron Afflalo'
p5986
aa(lp5987
S'9:02'
p5988
aS'\xc2\xa0'
p5989
aS'94-79'
p5990
aS'Corey Brewer makes 25-foot three point jumper (Al Harrington assists)'
p5991
aa(lp5992
S'9:02'
p5993
aS'San Antonio full timeout'
p5994
aa(lp5995
S'9:02'
p5996
aS'Richard Jefferson enters the game for Daniel Green'
p5997
aS'94-79'
p5998
aS'\xc2\xa0'
p5999
aa(lp6000
S'8:41'
p6001
aS'Richard Jefferson makes 23-foot three point jumper (Tony Parker assists)'
p6002
aS'97-79'
p6003
aS'\xc2\xa0'
p6004
aa(lp6005
S'8:22'
p6006
aS'\xc2\xa0'
p6007
aS'97-79'
p6008
aS'Jordan Hamilton misses 26-foot three point jumper'
p6009
aa(lp6010
S'8:21'
p6011
aS'DeJuan Blair defensive rebound'
p6012
aS'97-79'
p6013
aS'\xc2\xa0'
p6014
aa(lp6015
S'8:11'
p6016
aS'Tony Parker bad pass (Julyan Stone steals)'
p6017
aS'97-79'
p6018
aS'\xc2\xa0'
p6019
aa(lp6020
S'8:04'
p6021
aS'\xc2\xa0'
p6022
aS'97-79'
p6023
aS'Al Harrington bad pass (DeJuan Blair steals)'
p6024
aa(lp6025
S'7:46'
p6026
aS'DeJuan Blair misses 4-foot two point shot'
p6027
aS'97-79'
p6028
aS'\xc2\xa0'
p6029
aa(lp6030
S'7:45'
p6031
aS'\xc2\xa0'
p6032
aS'97-79'
p6033
aS'Jordan Hamilton defensive rebound'
p6034
aa(lp6035
S'7:37'
p6036
aS'\xc2\xa0'
p6037
aS'97-81'
p6038
aS'Corey Brewer makes 2-foot two point shot (Julyan Stone assists)'
p6039
aa(lp6040
S'7:11'
p6041
aS'James Anderson misses running jumper'
p6042
aS'97-81'
p6043
aS'\xc2\xa0'
p6044
aa(lp6045
S'7:09'
p6046
aS'\xc2\xa0'
p6047
aS'97-81'
p6048
aS'Jordan Hamilton defensive rebound'
p6049
aa(lp6050
S'7:03'
p6051
aS'\xc2\xa0'
p6052
aS'97-83'
p6053
aS'Corey Brewer makes 4-foot running jumper (Jordan Hamilton assists)'
p6054
aa(lp6055
S'6:47'
p6056
aS'Matt Bonner misses 23-foot three point jumper'
p6057
aS'97-83'
p6058
aS'\xc2\xa0'
p6059
aa(lp6060
S'6:46'
p6061
aS'\xc2\xa0'
p6062
aS'97-83'
p6063
aS'Jordan Hamilton defensive rebound'
p6064
aa(lp6065
S'6:41'
p6066
aS'\xc2\xa0'
p6067
aS'97-85'
p6068
aS'Corey Brewer makes 4-foot two point shot'
p6069
aa(lp6070
S'6:41'
p6071
aS'James Anderson shooting foul (Corey Brewer draws the foul)'
p6072
aS'97-85'
p6073
aS'\xc2\xa0'
p6074
aa(lp6075
S'6:41'
p6076
aS'Tim Duncan enters the game for Matt Bonner'
p6077
aS'97-85'
p6078
aS'\xc2\xa0'
p6079
aa(lp6080
S'6:41'
p6081
aS'Daniel Green enters the game for James Anderson'
p6082
aS'97-85'
p6083
aS'\xc2\xa0'
p6084
aa(lp6085
S'6:41'
p6086
aS'\xc2\xa0'
p6087
aS'97-85'
p6088
aS'Corey Brewer misses free throw 1 of 1'
p6089
aa(lp6090
S'6:39'
p6091
aS'DeJuan Blair defensive rebound'
p6092
aS'97-85'
p6093
aS'\xc2\xa0'
p6094
aa(lp6095
S'6:33'
p6096
aS'Tony Parker misses 6-foot jumper'
p6097
aS'97-85'
p6098
aS'\xc2\xa0'
p6099
aa(lp6100
S'6:33'
p6101
aS'\xc2\xa0'
p6102
aS'97-85'
p6103
aS'Al Harrington defensive rebound'
p6104
aa(lp6105
S'6:22'
p6106
aS'\xc2\xa0'
p6107
aS'97-85'
p6108
aS'Corey Brewer misses 25-foot three point jumper'
p6109
aa(lp6110
S'6:20'
p6111
aS'Richard Jefferson defensive rebound'
p6112
aS'97-85'
p6113
aS'\xc2\xa0'
p6114
aa(lp6115
S'6:05'
p6116
aS'Tony Parker misses two point shot'
p6117
aS'97-85'
p6118
aS'\xc2\xa0'
p6119
aa(lp6120
S'6:05'
p6121
aS'\xc2\xa0'
p6122
aS'97-85'
p6123
aS'Al Harrington defensive rebound'
p6124
aa(lp6125
S'5:56'
p6126
aS'\xc2\xa0'
p6127
aS'97-85'
p6128
aS'Julyan Stone misses 25-foot three point jumper'
p6129
aa(lp6130
S'5:54'
p6131
aS'\xc2\xa0'
p6132
aS'97-85'
p6133
aS'Al Harrington offensive rebound'
p6134
aa(lp6135
S'5:52'
p6136
aS'\xc2\xa0'
p6137
aS'97-85'
p6138
aS'Jordan Hamilton misses 8-foot jumper'
p6139
aa(lp6140
S'5:50'
p6141
aS'Daniel Green defensive rebound'
p6142
aS'97-85'
p6143
aS'\xc2\xa0'
p6144
aa(lp6145
S'5:31'
p6146
aS'\xc2\xa0'
p6147
aS'97-85'
p6148
aS'Julyan Stone shooting foul (DeJuan Blair draws the foul)'
p6149
aa(lp6150
S'5:31'
p6151
aS'\xc2\xa0'
p6152
aS'97-85'
p6153
aS' Official timeout'
p6154
aa(lp6155
S'5:31'
p6156
aS'DeJuan Blair makes free throw 1 of 2'
p6157
aS'98-85'
p6158
aS'\xc2\xa0'
p6159
aa(lp6160
S'5:31'
p6161
aS'DeJuan Blair makes free throw 2 of 2'
p6162
aS'99-85'
p6163
aS'\xc2\xa0'
p6164
aa(lp6165
S'5:16'
p6166
aS'\xc2\xa0'
p6167
aS'99-85'
p6168
aS'Al Harrington misses 19-foot jumper'
p6169
aa(lp6170
S'5:13'
p6171
aS'\xc2\xa0'
p6172
aS'99-85'
p6173
aS'Arron Afflalo enters the game for Jordan Hamilton'
p6174
aa(lp6175
S'5:13'
p6176
aS'\xc2\xa0'
p6177
aS'99-85'
p6178
aS'Denver offensive team rebound'
p6179
aa(lp6180
S'5:13'
p6181
aS'\xc2\xa0'
p6182
aS'99-85'
p6183
aS'Jumpball: Tim Duncan vs. Kosta Koufos (Arron Afflalo gains possession)'
p6184
aa(lp6185
S'5:05'
p6186
aS'\xc2\xa0'
p6187
aS'99-85'
p6188
aS'Corey Brewer misses 6-foot two point shot'
p6189
aa(lp6190
S'5:03'
p6191
aS'Richard Jefferson defensive rebound'
p6192
aS'99-85'
p6193
aS'\xc2\xa0'
p6194
aa(lp6195
S'4:56'
p6196
aS'\xc2\xa0'
p6197
aS'99-85'
p6198
aS'Arron Afflalo shooting foul (DeJuan Blair draws the foul)'
p6199
aa(lp6200
S'4:56'
p6201
aS'DeJuan Blair makes free throw 1 of 2'
p6202
aS'100-85'
p6203
aS'\xc2\xa0'
p6204
aa(lp6205
S'4:56'
p6206
aS'DeJuan Blair makes free throw 2 of 2'
p6207
aS'101-85'
p6208
aS'\xc2\xa0'
p6209
aa(lp6210
S'4:41'
p6211
aS'\xc2\xa0'
p6212
aS'101-88'
p6213
aS'Arron Afflalo makes 24-foot three point jumper (Julyan Stone assists)'
p6214
aa(lp6215
S'4:24'
p6216
aS'Tim Duncan makes layup (DeJuan Blair assists)'
p6217
aS'103-88'
p6218
aS'\xc2\xa0'
p6219
aa(lp6220
S'4:24'
p6221
aS'\xc2\xa0'
p6222
aS'103-88'
p6223
aS'Kosta Koufos shooting foul (Tim Duncan draws the foul)'
p6224
aa(lp6225
S'4:24'
p6226
aS'Denver full timeout'
p6227
aa(lp6228
S'4:24'
p6229
aS'Tim Duncan makes free throw 1 of 1'
p6230
aS'104-88'
p6231
aS'\xc2\xa0'
p6232
aa(lp6233
S'4:11'
p6234
aS'\xc2\xa0'
p6235
aS'104-90'
p6236
aS'Kosta Koufos makes dunk (Julyan Stone assists)'
p6237
aa(lp6238
S'3:45'
p6239
aS'Richard Jefferson makes 24-foot three point jumper (DeJuan Blair assists)'
p6240
aS'107-90'
p6241
aS'\xc2\xa0'
p6242
aa(lp6243
S'3:31'
p6244
aS'\xc2\xa0'
p6245
aS'107-93'
p6246
aS'Corey Brewer makes 23-foot three point jumper (Al Harrington assists)'
p6247
aa(lp6248
S'3:09'
p6249
aS'Tim Duncan misses 19-foot jumper'
p6250
aS'107-93'
p6251
aS'\xc2\xa0'
p6252
aa(lp6253
S'3:06'
p6254
aS'DeJuan Blair offensive rebound'
p6255
aS'107-93'
p6256
aS'\xc2\xa0'
p6257
aa(lp6258
S'3:02'
p6259
aS'DeJuan Blair misses 4-foot two point shot'
p6260
aS'107-93'
p6261
aS'\xc2\xa0'
p6262
aa(lp6263
S'3:02'
p6264
aS'\xc2\xa0'
p6265
aS'107-93'
p6266
aS'Al Harrington defensive rebound'
p6267
aa(lp6268
S'2:58'
p6269
aS'\xc2\xa0'
p6270
aS'107-93'
p6271
aS'Corey Brewer misses three point jumper'
p6272
aa(lp6273
S'2:57'
p6274
aS'DeJuan Blair defensive rebound'
p6275
aS'107-93'
p6276
aS'\xc2\xa0'
p6277
aa(lp6278
S'2:38'
p6279
aS'DeJuan Blair misses jumper'
p6280
aS'107-93'
p6281
aS'\xc2\xa0'
p6282
aa(lp6283
S'2:36'
p6284
aS'Tim Duncan offensive rebound'
p6285
aS'107-93'
p6286
aS'\xc2\xa0'
p6287
aa(lp6288
S'2:31'
p6289
aS'Daniel Green misses 24-foot three point jumper'
p6290
aS'107-93'
p6291
aS'\xc2\xa0'
p6292
aa(lp6293
S'2:30'
p6294
aS'\xc2\xa0'
p6295
aS'107-93'
p6296
aS'Al Harrington defensive rebound'
p6297
aa(lp6298
S'2:24'
p6299
aS'\xc2\xa0'
p6300
aS'107-93'
p6301
aS'Corey Brewer misses driving layup'
p6302
aa(lp6303
S'2:23'
p6304
aS'Richard Jefferson defensive rebound'
p6305
aS'107-93'
p6306
aS'\xc2\xa0'
p6307
aa(lp6308
S'2:02'
p6309
aS'\xc2\xa0'
p6310
aS'107-93'
p6311
aS'Kosta Koufos shooting foul (Tim Duncan draws the foul)'
p6312
aa(lp6313
S'2:02'
p6314
aS'Tim Duncan misses free throw 1 of 2'
p6315
aS'107-93'
p6316
aS'\xc2\xa0'
p6317
aa(lp6318
S'2:02'
p6319
aS'San Antonio offensive team rebound'
p6320
aS'107-93'
p6321
aS'\xc2\xa0'
p6322
aa(lp6323
S'2:02'
p6324
aS'\xc2\xa0'
p6325
aS'107-93'
p6326
aS'Kenneth Faried enters the game for Al Harrington'
p6327
aa(lp6328
S'2:02'
p6329
aS'\xc2\xa0'
p6330
aS'107-93'
p6331
aS'Jordan Hamilton enters the game for Arron Afflalo'
p6332
aa(lp6333
S'2:02'
p6334
aS'\xc2\xa0'
p6335
aS'107-93'
p6336
aS'Timofey Mozgov enters the game for Kosta Koufos'
p6337
aa(lp6338
S'2:02'
p6339
aS'Cory Joseph enters the game for Tony Parker'
p6340
aS'107-93'
p6341
aS'\xc2\xa0'
p6342
aa(lp6343
S'2:02'
p6344
aS'Eric Dawson enters the game for DeJuan Blair'
p6345
aS'107-93'
p6346
aS'\xc2\xa0'
p6347
aa(lp6348
S'2:02'
p6349
aS'James Anderson enters the game for Richard Jefferson'
p6350
aS'107-93'
p6351
aS'\xc2\xa0'
p6352
aa(lp6353
S'2:02'
p6354
aS'Tim Duncan makes free throw 2 of 2'
p6355
aS'108-93'
p6356
aS'\xc2\xa0'
p6357
aa(lp6358
S'1:50'
p6359
aS'\xc2\xa0'
p6360
aS'108-93'
p6361
aS'Kenneth Faried misses jumper'
p6362
aa(lp6363
S'1:47'
p6364
aS'Eric Dawson defensive rebound'
p6365
aS'108-93'
p6366
aS'\xc2\xa0'
p6367
aa(lp6368
S'1:31'
p6369
aS'Cory Joseph makes 17-foot jumper'
p6370
aS'110-93'
p6371
aS'\xc2\xa0'
p6372
aa(lp6373
S'1:23'
p6374
aS'Cory Joseph personal take (Julyan Stone draws the foul)'
p6375
aS'110-93'
p6376
aS'\xc2\xa0'
p6377
aa(lp6378
S'1:23'
p6379
aS'DeJuan Blair enters the game for Tim Duncan'
p6380
aS'110-93'
p6381
aS'\xc2\xa0'
p6382
aa(lp6383
S'1:19'
p6384
aS'\xc2\xa0'
p6385
aS'110-95'
p6386
aS'Corey Brewer makes two point shot (Julyan Stone assists)'
p6387
aa(lp6388
S'1:19'
p6389
aS'Cory Joseph shooting foul (Corey Brewer draws the foul)'
p6390
aS'110-95'
p6391
aS'\xc2\xa0'
p6392
aa(lp6393
S'1:19'
p6394
aS'\xc2\xa0'
p6395
aS'110-96'
p6396
aS'Corey Brewer makes free throw 1 of 1'
p6397
aa(lp6398
S'0:58'
p6399
aS'DeJuan Blair makes 16-foot jumper (Cory Joseph assists)'
p6400
aS'112-96'
p6401
aS'\xc2\xa0'
p6402
aa(lp6403
S'0:53'
p6404
aS'\xc2\xa0'
p6405
aS'112-96'
p6406
aS'Corey Brewer misses 2-foot two point shot'
p6407
aa(lp6408
S'0:52'
p6409
aS'DeJuan Blair defensive rebound'
p6410
aS'112-96'
p6411
aS'\xc2\xa0'
p6412
aa(lp6413
S'0:37'
p6414
aS'DeJuan Blair misses 16-foot jumper'
p6415
aS'112-96'
p6416
aS'\xc2\xa0'
p6417
aa(lp6418
S'0:35'
p6419
aS'\xc2\xa0'
p6420
aS'112-96'
p6421
aS'Kenneth Faried defensive rebound'
p6422
aa(lp6423
S'0:28'
p6424
aS'\xc2\xa0'
p6425
aS'112-99'
p6426
aS'Julyan Stone makes 25-foot three point jumper (Corey Brewer assists)'
p6427
aa(lp6428
S'0:08'
p6429
aS'Daniel Green makes driving layup'
p6430
aS'114-99'
p6431
aS'\xc2\xa0'
p6432
aa(lp6433
S'0:00'
p6434
aS'End of the 4th Quarter'
p6435
aa(lp6436
S'0:00'
p6437
aS'End Game'
p6438
aasg2161
(lp6439
S'TIME'
p6440
aS'SAN ANTONIO'
p6441
aS'SCORE'
p6442
aS'DENVER'
p6443
assS'320223014'
p6444
(dp6445
g3
(lp6446
(lp6447
S'12:00'
p6448
aS'Start of the 1st Quarter'
p6449
aa(lp6450
S'12:00'
p6451
aS'Jumpball: Tyson Chandler vs. Joel Anthony (Carmelo Anthony gains possession)'
p6452
aS'0-0'
p6453
aS'\xc2\xa0'
p6454
aa(lp6455
S'11:44'
p6456
aS'Carmelo Anthony makes 19-foot jumper (Jeremy Lin assists)'
p6457
aS'2-0'
p6458
aS'\xc2\xa0'
p6459
aa(lp6460
S'11:33'
p6461
aS'\xc2\xa0'
p6462
aS'2-2'
p6463
aS'LeBron James makes two point shot (Dwyane Wade assists)'
p6464
aa(lp6465
S'11:12'
p6466
aS'Carmelo Anthony misses 18-foot jumper'
p6467
aS'2-2'
p6468
aS'\xc2\xa0'
p6469
aa(lp6470
S'11:11'
p6471
aS'New York defensive team rebound'
p6472
aS'2-2'
p6473
aS'\xc2\xa0'
p6474
aa(lp6475
S'10:56'
p6476
aS'\xc2\xa0'
p6477
aS'2-2'
p6478
aS'Mario Chalmers misses 24-foot three point jumper'
p6479
aa(lp6480
S'10:55'
p6481
aS'Amare Stoudemire defensive rebound'
p6482
aS'2-2'
p6483
aS'\xc2\xa0'
p6484
aa(lp6485
S'10:33'
p6486
aS'Amare Stoudemire makes 5-foot jumper (Jeremy Lin assists)'
p6487
aS'4-2'
p6488
aS'\xc2\xa0'
p6489
aa(lp6490
S'10:26'
p6491
aS'\xc2\xa0'
p6492
aS'4-2'
p6493
aS'Mario Chalmers bad pass'
p6494
aa(lp6495
S'10:19'
p6496
aS'Amare Stoudemire bad pass (LeBron James steals)'
p6497
aS'4-2'
p6498
aS'\xc2\xa0'
p6499
aa(lp6500
S'10:15'
p6501
aS'\xc2\xa0'
p6502
aS'4-2'
p6503
aS'Dwyane Wade misses driving dunk'
p6504
aa(lp6505
S'10:14'
p6506
aS'Carmelo Anthony defensive rebound'
p6507
aS'4-2'
p6508
aS'\xc2\xa0'
p6509
aa(lp6510
S'10:07'
p6511
aS"Joel Anthony blocks Carmelo Anthony's driving layup"
p6512
aS'4-2'
p6513
aS'\xc2\xa0'
p6514
aa(lp6515
S'10:06'
p6516
aS'\xc2\xa0'
p6517
aS'4-2'
p6518
aS'LeBron James defensive rebound'
p6519
aa(lp6520
S'10:02'
p6521
aS'Amare Stoudemire shooting foul (LeBron James draws the foul)'
p6522
aS'4-2'
p6523
aS'\xc2\xa0'
p6524
aa(lp6525
S'10:02'
p6526
aS'\xc2\xa0'
p6527
aS'4-3'
p6528
aS'LeBron James makes free throw 1 of 2'
p6529
aa(lp6530
S'10:02'
p6531
aS'\xc2\xa0'
p6532
aS'4-4'
p6533
aS'LeBron James makes free throw 2 of 2'
p6534
aa(lp6535
S'9:56'
p6536
aS'Jeremy Lin lost ball (Mario Chalmers steals)'
p6537
aS'4-4'
p6538
aS'\xc2\xa0'
p6539
aa(lp6540
S'9:53'
p6541
aS'\xc2\xa0'
p6542
aS'4-6'
p6543
aS'Mario Chalmers makes two point shot'
p6544
aa(lp6545
S'9:38'
p6546
aS"LeBron James blocks Tyson Chandler's driving layup"
p6547
aS'4-6'
p6548
aS'\xc2\xa0'
p6549
aa(lp6550
S'9:37'
p6551
aS'\xc2\xa0'
p6552
aS'4-6'
p6553
aS'Joel Anthony defensive rebound'
p6554
aa(lp6555
S'9:33'
p6556
aS'\xc2\xa0'
p6557
aS'4-8'
p6558
aS'Dwyane Wade makes driving layup (LeBron James assists)'
p6559
aa(lp6560
S'9:18'
p6561
aS'Amare Stoudemire lost ball (LeBron James steals)'
p6562
aS'4-8'
p6563
aS'\xc2\xa0'
p6564
aa(lp6565
S'9:12'
p6566
aS'\xc2\xa0'
p6567
aS'4-8'
p6568
aS'Chris Bosh misses layup'
p6569
aa(lp6570
S'9:10'
p6571
aS'\xc2\xa0'
p6572
aS'4-8'
p6573
aS'Dwyane Wade offensive rebound'
p6574
aa(lp6575
S'9:06'
p6576
aS'\xc2\xa0'
p6577
aS'4-10'
p6578
aS'Dwyane Wade makes 10-foot jumper'
p6579
aa(lp6580
S'9:00'
p6581
aS'New York full timeout'
p6582
aa(lp6583
S'8:51'
p6584
aS'Amare Stoudemire lost ball (Mario Chalmers steals)'
p6585
aS'4-10'
p6586
aS'\xc2\xa0'
p6587
aa(lp6588
S'8:48'
p6589
aS'\xc2\xa0'
p6590
aS'4-10'
p6591
aS'Dwyane Wade offensive charge (Jeremy Lin draws the foul)'
p6592
aa(lp6593
S'8:48'
p6594
aS'\xc2\xa0'
p6595
aS'4-10'
p6596
aS'Dwyane Wade turnover'
p6597
aa(lp6598
S'8:37'
p6599
aS'Amare Stoudemire post lost ball turnover (LeBron James steals)'
p6600
aS'4-10'
p6601
aS'\xc2\xa0'
p6602
aa(lp6603
S'8:25'
p6604
aS'\xc2\xa0'
p6605
aS'4-10'
p6606
aS'Dwyane Wade misses 17-foot jumper'
p6607
aa(lp6608
S'8:22'
p6609
aS'Carmelo Anthony defensive rebound'
p6610
aS'4-10'
p6611
aS'\xc2\xa0'
p6612
aa(lp6613
S'8:04'
p6614
aS'Amare Stoudemire makes 19-foot jumper (Landry Fields assists)'
p6615
aS'6-10'
p6616
aS'\xc2\xa0'
p6617
aa(lp6618
S'7:52'
p6619
aS'\xc2\xa0'
p6620
aS'6-12'
p6621
aS'Chris Bosh makes 21-foot jumper (LeBron James assists)'
p6622
aa(lp6623
S'7:37'
p6624
aS"Joel Anthony blocks Carmelo Anthony's driving layup"
p6625
aS'6-12'
p6626
aS'\xc2\xa0'
p6627
aa(lp6628
S'7:35'
p6629
aS'Tyson Chandler offensive rebound'
p6630
aS'6-12'
p6631
aS'\xc2\xa0'
p6632
aa(lp6633
S'7:35'
p6634
aS'Tyson Chandler makes dunk'
p6635
aS'8-12'
p6636
aS'\xc2\xa0'
p6637
aa(lp6638
S'7:18'
p6639
aS'Tyson Chandler shooting foul (Chris Bosh draws the foul)'
p6640
aS'8-12'
p6641
aS'\xc2\xa0'
p6642
aa(lp6643
S'7:18'
p6644
aS'\xc2\xa0'
p6645
aS'8-13'
p6646
aS'Chris Bosh makes free throw 1 of 2'
p6647
aa(lp6648
S'7:18'
p6649
aS'\xc2\xa0'
p6650
aS'8-14'
p6651
aS'Chris Bosh makes free throw 2 of 2'
p6652
aa(lp6653
S'6:56'
p6654
aS'\xc2\xa0'
p6655
aS'8-14'
p6656
aS'Mario Chalmers personal foul (Carmelo Anthony draws the foul)'
p6657
aa(lp6658
S'6:48'
p6659
aS'Jeremy Lin bad pass (Chris Bosh steals)'
p6660
aS'8-14'
p6661
aS'\xc2\xa0'
p6662
aa(lp6663
S'6:39'
p6664
aS'\xc2\xa0'
p6665
aS'8-14'
p6666
aS'LeBron James misses 19-foot two point shot'
p6667
aa(lp6668
S'6:39'
p6669
aS'Landry Fields defensive rebound'
p6670
aS'8-14'
p6671
aS'\xc2\xa0'
p6672
aa(lp6673
S'6:31'
p6674
aS'Landry Fields makes 19-foot jumper'
p6675
aS'10-14'
p6676
aS'\xc2\xa0'
p6677
aa(lp6678
S'6:16'
p6679
aS'\xc2\xa0'
p6680
aS'10-14'
p6681
aS'Mario Chalmers bad pass (Amare Stoudemire steals)'
p6682
aa(lp6683
S'6:13'
p6684
aS'\xc2\xa0'
p6685
aS'10-14'
p6686
aS'Joel Anthony shooting foul (Amare Stoudemire draws the foul)'
p6687
aa(lp6688
S'6:13'
p6689
aS'Amare Stoudemire misses free throw 1 of 2'
p6690
aS'10-14'
p6691
aS'\xc2\xa0'
p6692
aa(lp6693
S'6:13'
p6694
aS'New York offensive team rebound'
p6695
aS'10-14'
p6696
aS'\xc2\xa0'
p6697
aa(lp6698
S'6:13'
p6699
aS'Amare Stoudemire makes free throw 2 of 2'
p6700
aS'11-14'
p6701
aS'\xc2\xa0'
p6702
aa(lp6703
S'5:56'
p6704
aS'\xc2\xa0'
p6705
aS'11-14'
p6706
aS'Chris Bosh offensive charge (Tyson Chandler draws the foul)'
p6707
aa(lp6708
S'5:56'
p6709
aS'\xc2\xa0'
p6710
aS'11-14'
p6711
aS'Chris Bosh turnover'
p6712
aa(lp6713
S'5:37'
p6714
aS'Landry Fields misses two point shot'
p6715
aS'11-14'
p6716
aS'\xc2\xa0'
p6717
aa(lp6718
S'5:35'
p6719
aS'Landry Fields offensive rebound'
p6720
aS'11-14'
p6721
aS'\xc2\xa0'
p6722
aa(lp6723
S'5:35'
p6724
aS'Landry Fields misses tip shot'
p6725
aS'11-14'
p6726
aS'\xc2\xa0'
p6727
aa(lp6728
S'5:33'
p6729
aS'Tyson Chandler misses tip shot'
p6730
aS'11-14'
p6731
aS'\xc2\xa0'
p6732
aa(lp6733
S'5:33'
p6734
aS'Tyson Chandler offensive rebound'
p6735
aS'11-14'
p6736
aS'\xc2\xa0'
p6737
aa(lp6738
S'5:33'
p6739
aS'Amare Stoudemire offensive rebound'
p6740
aS'11-14'
p6741
aS'\xc2\xa0'
p6742
aa(lp6743
S'5:31'
p6744
aS'Amare Stoudemire misses 4-foot jumper'
p6745
aS'11-14'
p6746
aS'\xc2\xa0'
p6747
aa(lp6748
S'5:30'
p6749
aS'\xc2\xa0'
p6750
aS'11-14'
p6751
aS'Chris Bosh defensive rebound'
p6752
aa(lp6753
S'5:22'
p6754
aS'\xc2\xa0'
p6755
aS'11-16'
p6756
aS'LeBron James makes driving layup'
p6757
aa(lp6758
S'5:09'
p6759
aS'J.R. Smith enters the game for Amare Stoudemire'
p6760
aS'11-16'
p6761
aS'\xc2\xa0'
p6762
aa(lp6763
S'5:09'
p6764
aS'Jared Jeffries enters the game for Landry Fields'
p6765
aS'11-16'
p6766
aS'\xc2\xa0'
p6767
aa(lp6768
S'5:05'
p6769
aS'Jeremy Lin out of bounds lost ball turnover'
p6770
aS'11-16'
p6771
aS'\xc2\xa0'
p6772
aa(lp6773
S'4:52'
p6774
aS'\xc2\xa0'
p6775
aS'11-16'
p6776
aS'Dwyane Wade misses driving layup'
p6777
aa(lp6778
S'4:52'
p6779
aS'J.R. Smith defensive rebound'
p6780
aS'11-16'
p6781
aS'\xc2\xa0'
p6782
aa(lp6783
S'4:43'
p6784
aS'Tyson Chandler makes dunk (J.R. Smith assists)'
p6785
aS'13-16'
p6786
aS'\xc2\xa0'
p6787
aa(lp6788
S'4:41'
p6789
aS'New York team technical foul'
p6790
aS'13-16'
p6791
aS'\xc2\xa0'
p6792
aa(lp6793
S'4:41'
p6794
aS'\xc2\xa0'
p6795
aS'13-16'
p6796
aS'Mario Chalmers misses technical free throw'
p6797
aa(lp6798
S'4:41'
p6799
aS'\xc2\xa0'
p6800
aS'13-16'
p6801
aS'Miami offensive team rebound'
p6802
aa(lp6803
S'4:41'
p6804
aS'Tyson Chandler technical foul (2nd technical foul)'
p6805
aS'13-16'
p6806
aS'\xc2\xa0'
p6807
aa(lp6808
S'4:41'
p6809
aS'\xc2\xa0'
p6810
aS'13-17'
p6811
aS'Mario Chalmers makes technical free throw'
p6812
aa(lp6813
S'4:18'
p6814
aS'\xc2\xa0'
p6815
aS'13-17'
p6816
aS'Dwyane Wade misses 1-foot two point shot'
p6817
aa(lp6818
S'4:18'
p6819
aS'Jeremy Lin defensive rebound'
p6820
aS'13-17'
p6821
aS'\xc2\xa0'
p6822
aa(lp6823
S'4:11'
p6824
aS'\xc2\xa0'
p6825
aS'13-17'
p6826
aS'Chris Bosh personal foul (Jeremy Lin draws the foul)'
p6827
aa(lp6828
S'4:11'
p6829
aS'\xc2\xa0'
p6830
aS'13-17'
p6831
aS'Shane Battier enters the game for Dwyane Wade'
p6832
aa(lp6833
S'4:11'
p6834
aS'\xc2\xa0'
p6835
aS'13-17'
p6836
aS'Udonis Haslem enters the game for Chris Bosh'
p6837
aa(lp6838
S'3:56'
p6839
aS'Carmelo Anthony misses 20-foot jumper'
p6840
aS'13-17'
p6841
aS'\xc2\xa0'
p6842
aa(lp6843
S'3:55'
p6844
aS'Tyson Chandler offensive rebound'
p6845
aS'13-17'
p6846
aS'\xc2\xa0'
p6847
aa(lp6848
S'3:48'
p6849
aS'Jeremy Lin makes driving layup'
p6850
aS'15-17'
p6851
aS'\xc2\xa0'
p6852
aa(lp6853
S'3:31'
p6854
aS'Carmelo Anthony personal foul (Mario Chalmers draws the foul)'
p6855
aS'15-17'
p6856
aS'\xc2\xa0'
p6857
aa(lp6858
S'3:28'
p6859
aS'\xc2\xa0'
p6860
aS'15-19'
p6861
aS'Mario Chalmers makes layup (LeBron James assists)'
p6862
aa(lp6863
S'3:17'
p6864
aS'\xc2\xa0'
p6865
aS'15-19'
p6866
aS'Shane Battier personal foul (Tyson Chandler draws the foul)'
p6867
aa(lp6868
S'3:17'
p6869
aS'\xc2\xa0'
p6870
aS'15-19'
p6871
aS'Norris Cole enters the game for Mario Chalmers'
p6872
aa(lp6873
S'3:17'
p6874
aS'Steve Novak enters the game for Tyson Chandler'
p6875
aS'15-19'
p6876
aS'\xc2\xa0'
p6877
aa(lp6878
S'3:11'
p6879
aS'Jeremy Lin misses 18-foot jumper'
p6880
aS'15-19'
p6881
aS'\xc2\xa0'
p6882
aa(lp6883
S'3:10'
p6884
aS'\xc2\xa0'
p6885
aS'15-19'
p6886
aS'LeBron James defensive rebound'
p6887
aa(lp6888
S'2:57'
p6889
aS'\xc2\xa0'
p6890
aS'15-19'
p6891
aS'LeBron James offensive foul (J.R. Smith draws the foul)'
p6892
aa(lp6893
S'2:57'
p6894
aS'\xc2\xa0'
p6895
aS'15-19'
p6896
aS'LeBron James turnover'
p6897
aa(lp6898
S'2:57'
p6899
aS'Miami full timeout'
p6900
aa(lp6901
S'2:57'
p6902
aS'Baron Davis enters the game for Jeremy Lin'
p6903
aS'15-19'
p6904
aS'\xc2\xa0'
p6905
aa(lp6906
S'2:57'
p6907
aS'\xc2\xa0'
p6908
aS'15-19'
p6909
aS'Mike Miller enters the game for Joel Anthony'
p6910
aa(lp6911
S'2:45'
p6912
aS'Baron Davis bad pass (LeBron James steals)'
p6913
aS'15-19'
p6914
aS'\xc2\xa0'
p6915
aa(lp6916
S'2:20'
p6917
aS'\xc2\xa0'
p6918
aS'15-19'
p6919
aS'Norris Cole misses 25-foot three point jumper'
p6920
aa(lp6921
S'2:19'
p6922
aS'\xc2\xa0'
p6923
aS'15-19'
p6924
aS'Miami defensive team rebound'
p6925
aa(lp6926
S'1:59'
p6927
aS'Steve Novak makes 25-foot three point jumper (J.R. Smith assists)'
p6928
aS'18-19'
p6929
aS'\xc2\xa0'
p6930
aa(lp6931
S'1:39'
p6932
aS'\xc2\xa0'
p6933
aS'18-19'
p6934
aS'LeBron James misses 18-foot jumper'
p6935
aa(lp6936
S'1:38'
p6937
aS'Jared Jeffries defensive rebound'
p6938
aS'18-19'
p6939
aS'\xc2\xa0'
p6940
aa(lp6941
S'1:27'
p6942
aS"Shane Battier blocks Carmelo Anthony's layup"
p6943
aS'18-19'
p6944
aS'\xc2\xa0'
p6945
aa(lp6946
S'1:25'
p6947
aS'Carmelo Anthony offensive rebound'
p6948
aS'18-19'
p6949
aS'\xc2\xa0'
p6950
aa(lp6951
S'1:25'
p6952
aS'\xc2\xa0'
p6953
aS'18-19'
p6954
aS'Udonis Haslem shooting foul (Carmelo Anthony draws the foul)'
p6955
aa(lp6956
S'1:25'
p6957
aS'Carmelo Anthony makes free throw 1 of 2'
p6958
aS'19-19'
p6959
aS'\xc2\xa0'
p6960
aa(lp6961
S'1:25'
p6962
aS'Carmelo Anthony makes free throw 2 of 2'
p6963
aS'20-19'
p6964
aS'\xc2\xa0'
p6965
aa(lp6966
S'1:17'
p6967
aS'\xc2\xa0'
p6968
aS'20-21'
p6969
aS'Norris Cole makes 1-foot two point shot'
p6970
aa(lp6971
S'1:17'
p6972
aS'Jared Jeffries defensive goaltending'
p6973
aS'20-21'
p6974
aS'\xc2\xa0'
p6975
aa(lp6976
S'0:51'
p6977
aS"LeBron James blocks Baron Davis's 8-foot hook shot"
p6978
aS'20-21'
p6979
aS'\xc2\xa0'
p6980
aa(lp6981
S'0:50'
p6982
aS'\xc2\xa0'
p6983
aS'20-21'
p6984
aS'Udonis Haslem defensive rebound'
p6985
aa(lp6986
S'0:44'
p6987
aS'\xc2\xa0'
p6988
aS'20-24'
p6989
aS'Mike Miller makes 23-foot three point jumper (Norris Cole assists)'
p6990
aa(lp6991
S'0:30'
p6992
aS'Steve Novak 3 second'
p6993
aS'20-24'
p6994
aS'\xc2\xa0'
p6995
aa(lp6996
S'0:30'
p6997
aS'Landry Fields enters the game for Carmelo Anthony'
p6998
aS'20-24'
p6999
aS'\xc2\xa0'
p7000
aa(lp7001
S'0:11'
p7002
aS'\xc2\xa0'
p7003
aS'20-24'
p7004
aS'Norris Cole misses 15-foot jumper'
p7005
aa(lp7006
S'0:10'
p7007
aS'\xc2\xa0'
p7008
aS'20-24'
p7009
aS'Miami defensive team rebound'
p7010
aa(lp7011
S'0:00'
p7012
aS'Baron Davis misses 25-foot three point jumper'
p7013
aS'20-24'
p7014
aS'\xc2\xa0'
p7015
aa(lp7016
S'0:00'
p7017
aS'New York offensive team rebound'
p7018
aS'20-24'
p7019
aS'\xc2\xa0'
p7020
aa(lp7021
S'0:00'
p7022
aS'End of the 1st Quarter'
p7023
aa(lp7024
S'2nd Quarter Summary'
p7025
aa(lp7026
a(lp7027
S'12:00'
p7028
aS'Start of the 2nd Quarter'
p7029
aa(lp7030
S'11:37'
p7031
aS'\xc2\xa0'
p7032
aS'20-24'
p7033
aS'Chris Bosh misses layup'
p7034
aa(lp7035
S'11:36'
p7036
aS'Jared Jeffries defensive rebound'
p7037
aS'20-24'
p7038
aS'\xc2\xa0'
p7039
aa(lp7040
S'11:22'
p7041
aS'Jumpball: Landry Fields vs. Norris Cole (Baron Davis gains possession)'
p7042
aS'20-24'
p7043
aS'\xc2\xa0'
p7044
aa(lp7045
S'11:15'
p7046
aS'Baron Davis misses 25-foot three point jumper'
p7047
aS'20-24'
p7048
aS'\xc2\xa0'
p7049
aa(lp7050
S'11:15'
p7051
aS'Landry Fields offensive rebound'
p7052
aS'20-24'
p7053
aS'\xc2\xa0'
p7054
aa(lp7055
S'11:02'
p7056
aS'Landry Fields misses 4-foot jumper'
p7057
aS'20-24'
p7058
aS'\xc2\xa0'
p7059
aa(lp7060
S'11:00'
p7061
aS'Landry Fields offensive rebound'
p7062
aS'20-24'
p7063
aS'\xc2\xa0'
p7064
aa(lp7065
S'11:00'
p7066
aS'Landry Fields makes layup'
p7067
aS'22-24'
p7068
aS'\xc2\xa0'
p7069
aa(lp7070
S'10:45'
p7071
aS'\xc2\xa0'
p7072
aS'22-24'
p7073
aS'Udonis Haslem misses layup'
p7074
aa(lp7075
S'10:45'
p7076
aS'Jared Jeffries defensive rebound'
p7077
aS'22-24'
p7078
aS'\xc2\xa0'
p7079
aa(lp7080
S'10:32'
p7081
aS'Steve Novak makes three point jumper'
p7082
aS'25-24'
p7083
aS'\xc2\xa0'
p7084
aa(lp7085
S'10:15'
p7086
aS'\xc2\xa0'
p7087
aS'25-26'
p7088
aS'Udonis Haslem makes layup'
p7089
aa(lp7090
S'10:02'
p7091
aS'Steve Novak makes 22-foot three point jumper (Jared Jeffries assists)'
p7092
aS'28-26'
p7093
aS'\xc2\xa0'
p7094
aa(lp7095
S'9:57'
p7096
aS'\xc2\xa0'
p7097
aS'28-26'
p7098
aS'Norris Cole out of bounds lost ball turnover'
p7099
aa(lp7100
S'9:57'
p7101
aS'Amare Stoudemire enters the game for J.R. Smith'
p7102
aS'28-26'
p7103
aS'\xc2\xa0'
p7104
aa(lp7105
S'9:45'
p7106
aS'\xc2\xa0'
p7107
aS'28-26'
p7108
aS'Shane Battier shooting foul (Amare Stoudemire draws the foul)'
p7109
aa(lp7110
S'9:45'
p7111
aS'Amare Stoudemire makes free throw 1 of 2'
p7112
aS'29-26'
p7113
aS'\xc2\xa0'
p7114
aa(lp7115
S'9:45'
p7116
aS'\xc2\xa0'
p7117
aS'29-26'
p7118
aS'Dwyane Wade enters the game for Mike Miller'
p7119
aa(lp7120
S'9:45'
p7121
aS'Amare Stoudemire makes free throw 2 of 2'
p7122
aS'30-26'
p7123
aS'\xc2\xa0'
p7124
aa(lp7125
S'9:27'
p7126
aS'\xc2\xa0'
p7127
aS'30-26'
p7128
aS'Chris Bosh misses 19-foot jumper'
p7129
aa(lp7130
S'9:27'
p7131
aS'\xc2\xa0'
p7132
aS'30-26'
p7133
aS'Jumpball: Baron Davis vs. Shane Battier (Norris Cole gains possession)'
p7134
aa(lp7135
S'9:27'
p7136
aS'\xc2\xa0'
p7137
aS'30-26'
p7138
aS'Shane Battier offensive rebound'
p7139
aa(lp7140
S'9:18'
p7141
aS'\xc2\xa0'
p7142
aS'30-28'
p7143
aS'Dwyane Wade makes jumper'
p7144
aa(lp7145
S'9:03'
p7146
aS'Jared Jeffries makes 20-foot jumper (Baron Davis assists)'
p7147
aS'32-28'
p7148
aS'\xc2\xa0'
p7149
aa(lp7150
S'8:45'
p7151
aS'\xc2\xa0'
p7152
aS'32-28'
p7153
aS'Norris Cole misses 23-foot three point jumper'
p7154
aa(lp7155
S'8:44'
p7156
aS'Amare Stoudemire defensive rebound'
p7157
aS'32-28'
p7158
aS'\xc2\xa0'
p7159
aa(lp7160
S'8:37'
p7161
aS"Udonis Haslem blocks Landry Fields's driving layup"
p7162
aS'32-28'
p7163
aS'\xc2\xa0'
p7164
aa(lp7165
S'8:37'
p7166
aS'\xc2\xa0'
p7167
aS'32-28'
p7168
aS'Udonis Haslem defensive rebound'
p7169
aa(lp7170
S'8:36'
p7171
aS'\xc2\xa0'
p7172
aS'32-28'
p7173
aS'Udonis Haslem bad pass'
p7174
aa(lp7175
S'8:36'
p7176
aS'\xc2\xa0'
p7177
aS'32-28'
p7178
aS' Official timeout'
p7179
aa(lp7180
S'8:36'
p7181
aS'Tyson Chandler enters the game for Jared Jeffries'
p7182
aS'32-28'
p7183
aS'\xc2\xa0'
p7184
aa(lp7185
S'8:36'
p7186
aS'Jeremy Lin enters the game for Baron Davis'
p7187
aS'32-28'
p7188
aS'\xc2\xa0'
p7189
aa(lp7190
S'8:29'
p7191
aS'Jeremy Lin lost ball (Norris Cole steals)'
p7192
aS'32-28'
p7193
aS'\xc2\xa0'
p7194
aa(lp7195
S'8:22'
p7196
aS'\xc2\xa0'
p7197
aS'32-30'
p7198
aS'Norris Cole makes two point shot'
p7199
aa(lp7200
S'8:03'
p7201
aS'Steve Novak traveling'
p7202
aS'32-30'
p7203
aS'\xc2\xa0'
p7204
aa(lp7205
S'7:41'
p7206
aS'\xc2\xa0'
p7207
aS'32-32'
p7208
aS'Chris Bosh makes two point shot'
p7209
aa(lp7210
S'7:22'
p7211
aS'Landry Fields makes driving layup'
p7212
aS'34-32'
p7213
aS'\xc2\xa0'
p7214
aa(lp7215
S'7:00'
p7216
aS'\xc2\xa0'
p7217
aS'34-34'
p7218
aS'Chris Bosh makes 12-foot jumper'
p7219
aa(lp7220
S'6:47'
p7221
aS'Amare Stoudemire misses 18-foot jumper'
p7222
aS'34-34'
p7223
aS'\xc2\xa0'
p7224
aa(lp7225
S'6:46'
p7226
aS'\xc2\xa0'
p7227
aS'34-34'
p7228
aS'Chris Bosh defensive rebound'
p7229
aa(lp7230
S'6:43'
p7231
aS'\xc2\xa0'
p7232
aS'34-34'
p7233
aS"Amare Stoudemire blocks Dwyane Wade's 8-foot running jumper"
p7234
aa(lp7235
S'6:41'
p7236
aS'\xc2\xa0'
p7237
aS'34-34'
p7238
aS'Miami offensive team rebound'
p7239
aa(lp7240
S'6:41'
p7241
aS'\xc2\xa0'
p7242
aS'34-34'
p7243
aS'LeBron James enters the game for Udonis Haslem'
p7244
aa(lp7245
S'6:41'
p7246
aS'Carmelo Anthony enters the game for Steve Novak'
p7247
aS'34-34'
p7248
aS'\xc2\xa0'
p7249
aa(lp7250
S'6:33'
p7251
aS'\xc2\xa0'
p7252
aS'34-34'
p7253
aS'Chris Bosh misses 19-foot jumper'
p7254
aa(lp7255
S'6:33'
p7256
aS'Carmelo Anthony defensive rebound'
p7257
aS'34-34'
p7258
aS'\xc2\xa0'
p7259
aa(lp7260
S'6:33'
p7261
aS'\xc2\xa0'
p7262
aS'34-34'
p7263
aS'Dwyane Wade personal foul (Jeremy Lin draws the foul)'
p7264
aa(lp7265
S'6:18'
p7266
aS'Amare Stoudemire makes driving dunk'
p7267
aS'36-34'
p7268
aS'\xc2\xa0'
p7269
aa(lp7270
S'6:11'
p7271
aS'Miami full timeout'
p7272
aa(lp7273
S'6:11'
p7274
aS'\xc2\xa0'
p7275
aS'36-34'
p7276
aS'Joel Anthony enters the game for Shane Battier'
p7277
aa(lp7278
S'5:52'
p7279
aS'\xc2\xa0'
p7280
aS'36-34'
p7281
aS'LeBron James misses 16-foot two point shot'
p7282
aa(lp7283
S'5:50'
p7284
aS'\xc2\xa0'
p7285
aS'36-34'
p7286
aS'Norris Cole offensive rebound'
p7287
aa(lp7288
S'5:43'
p7289
aS'Carmelo Anthony shooting foul (Norris Cole draws the foul)'
p7290
aS'36-34'
p7291
aS'\xc2\xa0'
p7292
aa(lp7293
S'5:43'
p7294
aS'\xc2\xa0'
p7295
aS'36-35'
p7296
aS'Norris Cole makes free throw 1 of 2'
p7297
aa(lp7298
S'5:43'
p7299
aS'J.R. Smith enters the game for Landry Fields'
p7300
aS'36-35'
p7301
aS'\xc2\xa0'
p7302
aa(lp7303
S'5:43'
p7304
aS'\xc2\xa0'
p7305
aS'36-35'
p7306
aS'Norris Cole misses free throw 2 of 2'
p7307
aa(lp7308
S'5:43'
p7309
aS'J.R. Smith defensive rebound'
p7310
aS'36-35'
p7311
aS'\xc2\xa0'
p7312
aa(lp7313
S'5:18'
p7314
aS'J.R. Smith makes 10-foot two point shot'
p7315
aS'38-35'
p7316
aS'\xc2\xa0'
p7317
aa(lp7318
S'5:01'
p7319
aS'\xc2\xa0'
p7320
aS'38-35'
p7321
aS'Shane Battier enters the game for Chris Bosh'
p7322
aa(lp7323
S'5:01'
p7324
aS'\xc2\xa0'
p7325
aS'38-35'
p7326
aS'Mario Chalmers enters the game for Norris Cole'
p7327
aa(lp7328
S'4:54'
p7329
aS'\xc2\xa0'
p7330
aS'38-35'
p7331
aS'Mario Chalmers misses 26-foot three point jumper'
p7332
aa(lp7333
S'4:52'
p7334
aS'\xc2\xa0'
p7335
aS'38-35'
p7336
aS'Shane Battier offensive rebound'
p7337
aa(lp7338
S'4:45'
p7339
aS'\xc2\xa0'
p7340
aS'38-37'
p7341
aS'Dwyane Wade makes 11-foot two point shot (Shane Battier assists)'
p7342
aa(lp7343
S'4:39'
p7344
aS'\xc2\xa0'
p7345
aS'38-37'
p7346
aS'Mario Chalmers personal foul (Jeremy Lin draws the foul)'
p7347
aa(lp7348
S'4:31'
p7349
aS'Carmelo Anthony misses 9-foot two point shot'
p7350
aS'38-37'
p7351
aS'\xc2\xa0'
p7352
aa(lp7353
S'4:28'
p7354
aS'\xc2\xa0'
p7355
aS'38-37'
p7356
aS'Joel Anthony defensive rebound'
p7357
aa(lp7358
S'4:24'
p7359
aS'\xc2\xa0'
p7360
aS'38-37'
p7361
aS'LeBron James misses two point shot'
p7362
aa(lp7363
S'4:22'
p7364
aS'\xc2\xa0'
p7365
aS'38-37'
p7366
aS'Dwyane Wade offensive rebound'
p7367
aa(lp7368
S'4:22'
p7369
aS'\xc2\xa0'
p7370
aS'38-39'
p7371
aS'Dwyane Wade makes 1-foot two point shot'
p7372
aa(lp7373
S'4:09'
p7374
aS'Jeremy Lin misses 10-foot two point shot'
p7375
aS'38-39'
p7376
aS'\xc2\xa0'
p7377
aa(lp7378
S'4:07'
p7379
aS'\xc2\xa0'
p7380
aS'38-39'
p7381
aS'Dwyane Wade defensive rebound'
p7382
aa(lp7383
S'4:01'
p7384
aS'\xc2\xa0'
p7385
aS'38-39'
p7386
aS'Mario Chalmers misses 23-foot three point jumper'
p7387
aa(lp7388
S'3:59'
p7389
aS'Jeremy Lin defensive rebound'
p7390
aS'38-39'
p7391
aS'\xc2\xa0'
p7392
aa(lp7393
S'3:55'
p7394
aS"Joel Anthony blocks Carmelo Anthony's driving layup"
p7395
aS'38-39'
p7396
aS'\xc2\xa0'
p7397
aa(lp7398
S'3:53'
p7399
aS'J.R. Smith offensive rebound'
p7400
aS'38-39'
p7401
aS'\xc2\xa0'
p7402
aa(lp7403
S'3:42'
p7404
aS'Amare Stoudemire bad pass (LeBron James steals)'
p7405
aS'38-39'
p7406
aS'\xc2\xa0'
p7407
aa(lp7408
S'3:35'
p7409
aS'\xc2\xa0'
p7410
aS'38-39'
p7411
aS'LeBron James bad pass (J.R. Smith steals)'
p7412
aa(lp7413
S'3:30'
p7414
aS'Jeremy Lin offensive charge (Shane Battier draws the foul)'
p7415
aS'38-39'
p7416
aS'\xc2\xa0'
p7417
aa(lp7418
S'3:30'
p7419
aS'Jeremy Lin turnover'
p7420
aS'38-39'
p7421
aS'\xc2\xa0'
p7422
aa(lp7423
S'3:30'
p7424
aS'New York full timeout'
p7425
aa(lp7426
S'3:11'
p7427
aS'\xc2\xa0'
p7428
aS'38-39'
p7429
aS'Dwyane Wade misses 19-foot two point shot'
p7430
aa(lp7431
S'3:10'
p7432
aS'\xc2\xa0'
p7433
aS'38-39'
p7434
aS'LeBron James offensive rebound'
p7435
aa(lp7436
S'3:09'
p7437
aS'\xc2\xa0'
p7438
aS'38-39'
p7439
aS'LeBron James misses dunk'
p7440
aa(lp7441
S'3:08'
p7442
aS'Tyson Chandler defensive rebound'
p7443
aS'38-39'
p7444
aS'\xc2\xa0'
p7445
aa(lp7446
S'2:59'
p7447
aS'Amare Stoudemire makes hook shot'
p7448
aS'40-39'
p7449
aS'\xc2\xa0'
p7450
aa(lp7451
S'2:40'
p7452
aS'\xc2\xa0'
p7453
aS'40-39'
p7454
aS'Joel Anthony lost ball (Tyson Chandler steals)'
p7455
aa(lp7456
S'2:31'
p7457
aS'Jeremy Lin lost ball (Shane Battier steals)'
p7458
aS'40-39'
p7459
aS'\xc2\xa0'
p7460
aa(lp7461
S'2:29'
p7462
aS'\xc2\xa0'
p7463
aS'40-41'
p7464
aS'LeBron James makes driving dunk'
p7465
aa(lp7466
S'2:10'
p7467
aS'Amare Stoudemire lost ball (Dwyane Wade steals)'
p7468
aS'40-41'
p7469
aS'\xc2\xa0'
p7470
aa(lp7471
S'2:05'
p7472
aS'\xc2\xa0'
p7473
aS'40-43'
p7474
aS'Dwyane Wade makes driving layup'
p7475
aa(lp7476
S'1:55'
p7477
aS'\xc2\xa0'
p7478
aS'40-43'
p7479
aS'Joel Anthony shooting foul (Tyson Chandler draws the foul)'
p7480
aa(lp7481
S'1:55'
p7482
aS'Tyson Chandler makes free throw 1 of 2'
p7483
aS'41-43'
p7484
aS'\xc2\xa0'
p7485
aa(lp7486
S'1:55'
p7487
aS'Tyson Chandler makes free throw 2 of 2'
p7488
aS'42-43'
p7489
aS'\xc2\xa0'
p7490
aa(lp7491
S'1:32'
p7492
aS'\xc2\xa0'
p7493
aS'42-46'
p7494
aS'Shane Battier makes 24-foot three point jumper (Mario Chalmers assists)'
p7495
aa(lp7496
S'1:06'
p7497
aS'Jeremy Lin misses 25-foot three point jumper'
p7498
aS'42-46'
p7499
aS'\xc2\xa0'
p7500
aa(lp7501
S'1:05'
p7502
aS'\xc2\xa0'
p7503
aS'42-46'
p7504
aS'Shane Battier defensive rebound'
p7505
aa(lp7506
S'0:57'
p7507
aS'\xc2\xa0'
p7508
aS'42-46'
p7509
aS"Carmelo Anthony blocks Joel Anthony's layup"
p7510
aa(lp7511
S'0:56'
p7512
aS'\xc2\xa0'
p7513
aS'42-46'
p7514
aS'Miami offensive team rebound'
p7515
aa(lp7516
S'0:55'
p7517
aS'\xc2\xa0'
p7518
aS'42-48'
p7519
aS'Shane Battier makes layup (LeBron James assists)'
p7520
aa(lp7521
S'0:38'
p7522
aS'Jeremy Lin misses driving layup'
p7523
aS'42-48'
p7524
aS'\xc2\xa0'
p7525
aa(lp7526
S'0:37'
p7527
aS'Carmelo Anthony offensive rebound'
p7528
aS'42-48'
p7529
aS'\xc2\xa0'
p7530
aa(lp7531
S'0:35'
p7532
aS'Carmelo Anthony makes 25-foot three point jumper'
p7533
aS'45-48'
p7534
aS'\xc2\xa0'
p7535
aa(lp7536
S'0:25'
p7537
aS'J.R. Smith personal foul (LeBron James draws the foul)'
p7538
aS'45-48'
p7539
aS'\xc2\xa0'
p7540
aa(lp7541
S'0:25'
p7542
aS'\xc2\xa0'
p7543
aS'45-48'
p7544
aS'Udonis Haslem enters the game for Joel Anthony'
p7545
aa(lp7546
S'0:09'
p7547
aS'\xc2\xa0'
p7548
aS'45-51'
p7549
aS'Mario Chalmers makes 27-foot three point jumper (Dwyane Wade assists)'
p7550
aa(lp7551
S'0:00'
p7552
aS'Carmelo Anthony makes 19-foot jumper'
p7553
aS'47-51'
p7554
aS'\xc2\xa0'
p7555
aa(lp7556
S'0:00'
p7557
aS'End of the 2nd Quarter'
p7558
aa(lp7559
S'3rd Quarter Summary'
p7560
aa(lp7561
a(lp7562
S'12:00'
p7563
aS'Start of the 3rd Quarter'
p7564
aa(lp7565
S'11:44'
p7566
aS'\xc2\xa0'
p7567
aS'47-51'
p7568
aS'Chris Bosh misses dunk'
p7569
aa(lp7570
S'11:42'
p7571
aS'\xc2\xa0'
p7572
aS'47-51'
p7573
aS'Chris Bosh offensive rebound'
p7574
aa(lp7575
S'11:36'
p7576
aS'\xc2\xa0'
p7577
aS'47-51'
p7578
aS'Dwyane Wade misses 25-foot three point jumper'
p7579
aa(lp7580
S'11:34'
p7581
aS'Tyson Chandler defensive rebound'
p7582
aS'47-51'
p7583
aS'\xc2\xa0'
p7584
aa(lp7585
S'11:18'
p7586
aS'Jeremy Lin misses 25-foot three point jumper'
p7587
aS'47-51'
p7588
aS'\xc2\xa0'
p7589
aa(lp7590
S'11:17'
p7591
aS'\xc2\xa0'
p7592
aS'47-51'
p7593
aS'Mario Chalmers defensive rebound'
p7594
aa(lp7595
S'11:04'
p7596
aS'\xc2\xa0'
p7597
aS'47-51'
p7598
aS'Mario Chalmers misses 25-foot three point jumper'
p7599
aa(lp7600
S'11:03'
p7601
aS'Jeremy Lin defensive rebound'
p7602
aS'47-51'
p7603
aS'\xc2\xa0'
p7604
aa(lp7605
S'10:56'
p7606
aS'\xc2\xa0'
p7607
aS'47-51'
p7608
aS'Mario Chalmers shooting foul (Jeremy Lin draws the foul)'
p7609
aa(lp7610
S'10:56'
p7611
aS'Jeremy Lin makes free throw 1 of 2'
p7612
aS'48-51'
p7613
aS'\xc2\xa0'
p7614
aa(lp7615
S'10:56'
p7616
aS'Jeremy Lin makes free throw 2 of 2'
p7617
aS'49-51'
p7618
aS'\xc2\xa0'
p7619
aa(lp7620
S'10:33'
p7621
aS'\xc2\xa0'
p7622
aS'49-53'
p7623
aS'LeBron James makes 20-foot two point shot'
p7624
aa(lp7625
S'10:21'
p7626
aS'\xc2\xa0'
p7627
aS'49-53'
p7628
aS'Joel Anthony shooting foul (Carmelo Anthony draws the foul)'
p7629
aa(lp7630
S'10:21'
p7631
aS'Carmelo Anthony makes free throw 1 of 2'
p7632
aS'50-53'
p7633
aS'\xc2\xa0'
p7634
aa(lp7635
S'10:21'
p7636
aS'Carmelo Anthony makes free throw 2 of 2'
p7637
aS'51-53'
p7638
aS'\xc2\xa0'
p7639
aa(lp7640
S'10:08'
p7641
aS'\xc2\xa0'
p7642
aS'51-55'
p7643
aS'Chris Bosh makes driving layup'
p7644
aa(lp7645
S'10:00'
p7646
aS'Landry Fields lost ball (Dwyane Wade steals)'
p7647
aS'51-55'
p7648
aS'\xc2\xa0'
p7649
aa(lp7650
S'9:56'
p7651
aS'\xc2\xa0'
p7652
aS'51-57'
p7653
aS'Dwyane Wade makes two point shot'
p7654
aa(lp7655
S'9:44'
p7656
aS"Joel Anthony blocks Tyson Chandler's 6-foot jumper"
p7657
aS'51-57'
p7658
aS'\xc2\xa0'
p7659
aa(lp7660
S'9:42'
p7661
aS'\xc2\xa0'
p7662
aS'51-57'
p7663
aS'Mario Chalmers defensive rebound'
p7664
aa(lp7665
S'9:36'
p7666
aS'\xc2\xa0'
p7667
aS'51-59'
p7668
aS'Dwyane Wade makes 22-foot jumper'
p7669
aa(lp7670
S'9:36'
p7671
aS'New York full timeout'
p7672
aa(lp7673
S'9:21'
p7674
aS'Carmelo Anthony makes layup (Jeremy Lin assists)'
p7675
aS'53-59'
p7676
aS'\xc2\xa0'
p7677
aa(lp7678
S'9:00'
p7679
aS'Landry Fields shooting foul (Dwyane Wade draws the foul)'
p7680
aS'53-59'
p7681
aS'\xc2\xa0'
p7682
aa(lp7683
S'9:00'
p7684
aS'\xc2\xa0'
p7685
aS'53-60'
p7686
aS'Dwyane Wade makes free throw 1 of 2'
p7687
aa(lp7688
S'9:00'
p7689
aS'\xc2\xa0'
p7690
aS'53-61'
p7691
aS'Dwyane Wade makes free throw 2 of 2'
p7692
aa(lp7693
S'8:41'
p7694
aS'Carmelo Anthony misses 17-foot jumper'
p7695
aS'53-61'
p7696
aS'\xc2\xa0'
p7697
aa(lp7698
S'8:40'
p7699
aS'\xc2\xa0'
p7700
aS'53-61'
p7701
aS'LeBron James defensive rebound'
p7702
aa(lp7703
S'8:33'
p7704
aS'\xc2\xa0'
p7705
aS'53-61'
p7706
aS'Dwyane Wade misses 17-foot jumper'
p7707
aa(lp7708
S'8:32'
p7709
aS'\xc2\xa0'
p7710
aS'53-61'
p7711
aS'Joel Anthony offensive rebound'
p7712
aa(lp7713
S'8:25'
p7714
aS'\xc2\xa0'
p7715
aS'53-63'
p7716
aS'Chris Bosh makes dunk (Dwyane Wade assists)'
p7717
aa(lp7718
S'8:11'
p7719
aS'\xc2\xa0'
p7720
aS'53-63'
p7721
aS'LeBron James kicked ball'
p7722
aa(lp7723
S'8:08'
p7724
aS'\xc2\xa0'
p7725
aS'53-63'
p7726
aS'Mario Chalmers personal foul (Jeremy Lin draws the foul)'
p7727
aa(lp7728
S'8:08'
p7729
aS'\xc2\xa0'
p7730
aS'53-63'
p7731
aS'Norris Cole enters the game for Mario Chalmers'
p7732
aa(lp7733
S'8:00'
p7734
aS'Carmelo Anthony makes 16-foot jumper'
p7735
aS'55-63'
p7736
aS'\xc2\xa0'
p7737
aa(lp7738
S'7:45'
p7739
aS'\xc2\xa0'
p7740
aS'55-65'
p7741
aS'Chris Bosh makes 16-foot jumper (LeBron James assists)'
p7742
aa(lp7743
S'7:22'
p7744
aS'\xc2\xa0'
p7745
aS'55-65'
p7746
aS'Dwyane Wade shooting foul (Jeremy Lin draws the foul)'
p7747
aa(lp7748
S'7:22'
p7749
aS'Jeremy Lin makes free throw 1 of 2'
p7750
aS'56-65'
p7751
aS'\xc2\xa0'
p7752
aa(lp7753
S'7:22'
p7754
aS'Jeremy Lin makes free throw 2 of 2'
p7755
aS'57-65'
p7756
aS'\xc2\xa0'
p7757
aa(lp7758
S'7:11'
p7759
aS'Amare Stoudemire shooting foul (Chris Bosh draws the foul)'
p7760
aS'57-65'
p7761
aS'\xc2\xa0'
p7762
aa(lp7763
S'7:11'
p7764
aS'\xc2\xa0'
p7765
aS'57-66'
p7766
aS'Chris Bosh makes free throw 1 of 2'
p7767
aa(lp7768
S'7:11'
p7769
aS'\xc2\xa0'
p7770
aS'57-66'
p7771
aS'Chris Bosh misses free throw 2 of 2'
p7772
aa(lp7773
S'7:11'
p7774
aS'Amare Stoudemire defensive rebound'
p7775
aS'57-66'
p7776
aS'\xc2\xa0'
p7777
aa(lp7778
S'6:58'
p7779
aS'Amare Stoudemire misses 19-foot jumper'
p7780
aS'57-66'
p7781
aS'\xc2\xa0'
p7782
aa(lp7783
S'6:56'
p7784
aS'\xc2\xa0'
p7785
aS'57-66'
p7786
aS'LeBron James defensive rebound'
p7787
aa(lp7788
S'6:39'
p7789
aS'\xc2\xa0'
p7790
aS'57-66'
p7791
aS'Dwyane Wade misses 21-foot jumper'
p7792
aa(lp7793
S'6:37'
p7794
aS'Amare Stoudemire defensive rebound'
p7795
aS'57-66'
p7796
aS'\xc2\xa0'
p7797
aa(lp7798
S'6:24'
p7799
aS'Carmelo Anthony misses 13-foot two point shot'
p7800
aS'57-66'
p7801
aS'\xc2\xa0'
p7802
aa(lp7803
S'6:24'
p7804
aS'\xc2\xa0'
p7805
aS'57-66'
p7806
aS'Chris Bosh defensive rebound'
p7807
aa(lp7808
S'6:13'
p7809
aS'\xc2\xa0'
p7810
aS'57-66'
p7811
aS'Norris Cole misses 15-foot jumper'
p7812
aa(lp7813
S'6:13'
p7814
aS'Tyson Chandler defensive rebound'
p7815
aS'57-66'
p7816
aS'\xc2\xa0'
p7817
aa(lp7818
S'6:05'
p7819
aS'\xc2\xa0'
p7820
aS'57-66'
p7821
aS'LeBron James foul (Jeremy Lin draws the foul)'
p7822
aa(lp7823
S'6:05'
p7824
aS'Jeremy Lin makes free throw 1 of 2'
p7825
aS'58-66'
p7826
aS'\xc2\xa0'
p7827
aa(lp7828
S'6:05'
p7829
aS'Jared Jeffries enters the game for Amare Stoudemire'
p7830
aS'58-66'
p7831
aS'\xc2\xa0'
p7832
aa(lp7833
S'6:05'
p7834
aS'J.R. Smith enters the game for Landry Fields'
p7835
aS'58-66'
p7836
aS'\xc2\xa0'
p7837
aa(lp7838
S'6:05'
p7839
aS'Jeremy Lin makes free throw 2 of 2'
p7840
aS'59-66'
p7841
aS'\xc2\xa0'
p7842
aa(lp7843
S'5:48'
p7844
aS'\xc2\xa0'
p7845
aS'59-68'
p7846
aS'Dwyane Wade makes 9-foot two point shot'
p7847
aa(lp7848
S'5:48'
p7849
aS'J.R. Smith shooting foul (Dwyane Wade draws the foul)'
p7850
aS'59-68'
p7851
aS'\xc2\xa0'
p7852
aa(lp7853
S'5:48'
p7854
aS'\xc2\xa0'
p7855
aS'59-68'
p7856
aS'Dwyane Wade misses free throw 1 of 1'
p7857
aa(lp7858
S'5:48'
p7859
aS'Carmelo Anthony defensive rebound'
p7860
aS'59-68'
p7861
aS'\xc2\xa0'
p7862
aa(lp7863
S'5:26'
p7864
aS'J.R. Smith makes 25-foot three point jumper (Jared Jeffries assists)'
p7865
aS'62-68'
p7866
aS'\xc2\xa0'
p7867
aa(lp7868
S'5:16'
p7869
aS'Miami full timeout'
p7870
aa(lp7871
S'5:00'
p7872
aS'\xc2\xa0'
p7873
aS'62-68'
p7874
aS'Dwyane Wade misses 19-foot jumper'
p7875
aa(lp7876
S'4:58'
p7877
aS'\xc2\xa0'
p7878
aS'62-68'
p7879
aS'Chris Bosh offensive rebound'
p7880
aa(lp7881
S'4:58'
p7882
aS'Jared Jeffries personal foul (Chris Bosh draws the foul)'
p7883
aS'62-68'
p7884
aS'\xc2\xa0'
p7885
aa(lp7886
S'4:50'
p7887
aS'\xc2\xa0'
p7888
aS'62-68'
p7889
aS'LeBron James misses 18-foot jumper'
p7890
aa(lp7891
S'4:50'
p7892
aS'\xc2\xa0'
p7893
aS'62-68'
p7894
aS'Joel Anthony offensive rebound'
p7895
aa(lp7896
S'4:31'
p7897
aS'\xc2\xa0'
p7898
aS'62-70'
p7899
aS'Chris Bosh makes 12-foot two point shot'
p7900
aa(lp7901
S'4:16'
p7902
aS'Jeremy Lin bad pass'
p7903
aS'62-70'
p7904
aS'\xc2\xa0'
p7905
aa(lp7906
S'3:54'
p7907
aS'\xc2\xa0'
p7908
aS'62-70'
p7909
aS'Chris Bosh misses 12-foot two point shot'
p7910
aa(lp7911
S'3:53'
p7912
aS'Jeremy Lin defensive rebound'
p7913
aS'62-70'
p7914
aS'\xc2\xa0'
p7915
aa(lp7916
S'3:41'
p7917
aS'J.R. Smith misses 25-foot three point jumper'
p7918
aS'62-70'
p7919
aS'\xc2\xa0'
p7920
aa(lp7921
S'3:40'
p7922
aS'\xc2\xa0'
p7923
aS'62-70'
p7924
aS'Joel Anthony defensive rebound'
p7925
aa(lp7926
S'3:31'
p7927
aS'Carmelo Anthony shooting foul (LeBron James draws the foul)'
p7928
aS'62-70'
p7929
aS'\xc2\xa0'
p7930
aa(lp7931
S'3:31'
p7932
aS'\xc2\xa0'
p7933
aS'62-71'
p7934
aS'LeBron James makes free throw 1 of 2'
p7935
aa(lp7936
S'3:31'
p7937
aS'\xc2\xa0'
p7938
aS'62-71'
p7939
aS'Udonis Haslem enters the game for Chris Bosh'
p7940
aa(lp7941
S'3:31'
p7942
aS'\xc2\xa0'
p7943
aS'62-71'
p7944
aS'Shane Battier enters the game for Dwyane Wade'
p7945
aa(lp7946
S'3:31'
p7947
aS'\xc2\xa0'
p7948
aS'62-72'
p7949
aS'LeBron James makes free throw 2 of 2'
p7950
aa(lp7951
S'3:31'
p7952
aS'Steve Novak enters the game for Tyson Chandler'
p7953
aS'62-72'
p7954
aS'\xc2\xa0'
p7955
aa(lp7956
S'3:05'
p7957
aS"Joel Anthony blocks Jeremy Lin's 11-foot jumper"
p7958
aS'62-72'
p7959
aS'\xc2\xa0'
p7960
aa(lp7961
S'3:04'
p7962
aS'\xc2\xa0'
p7963
aS'62-72'
p7964
aS'Joel Anthony defensive rebound'
p7965
aa(lp7966
S'2:57'
p7967
aS'\xc2\xa0'
p7968
aS'62-75'
p7969
aS'Shane Battier makes 23-foot three point jumper (LeBron James assists)'
p7970
aa(lp7971
S'2:47'
p7972
aS'Carmelo Anthony offensive charge (Joel Anthony draws the foul)'
p7973
aS'62-75'
p7974
aS'\xc2\xa0'
p7975
aa(lp7976
S'2:47'
p7977
aS'Carmelo Anthony turnover'
p7978
aS'62-75'
p7979
aS'\xc2\xa0'
p7980
aa(lp7981
S'2:47'
p7982
aS'\xc2\xa0'
p7983
aS'62-75'
p7984
aS'Mike Miller enters the game for Joel Anthony'
p7985
aa(lp7986
S'2:26'
p7987
aS'\xc2\xa0'
p7988
aS'62-75'
p7989
aS'Shane Battier bad pass (J.R. Smith steals)'
p7990
aa(lp7991
S'2:23'
p7992
aS'\xc2\xa0'
p7993
aS'62-75'
p7994
aS'LeBron James shooting foul (J.R. Smith draws the foul)'
p7995
aa(lp7996
S'2:23'
p7997
aS'J.R. Smith makes free throw 1 of 2'
p7998
aS'63-75'
p7999
aS'\xc2\xa0'
p8000
aa(lp8001
S'2:23'
p8002
aS'Baron Davis enters the game for Carmelo Anthony'
p8003
aS'63-75'
p8004
aS'\xc2\xa0'
p8005
aa(lp8006
S'2:23'
p8007
aS'Landry Fields enters the game for Jeremy Lin'
p8008
aS'63-75'
p8009
aS'\xc2\xa0'
p8010
aa(lp8011
S'2:23'
p8012
aS'J.R. Smith makes free throw 2 of 2'
p8013
aS'64-75'
p8014
aS'\xc2\xa0'
p8015
aa(lp8016
S'2:10'
p8017
aS'Jared Jeffries shooting foul (Norris Cole draws the foul)'
p8018
aS'64-75'
p8019
aS'\xc2\xa0'
p8020
aa(lp8021
S'2:10'
p8022
aS'\xc2\xa0'
p8023
aS'64-76'
p8024
aS'Norris Cole makes free throw 1 of 2'
p8025
aa(lp8026
S'2:10'
p8027
aS'\xc2\xa0'
p8028
aS'64-76'
p8029
aS'Norris Cole misses free throw 2 of 2'
p8030
aa(lp8031
S'2:09'
p8032
aS'Landry Fields defensive rebound'
p8033
aS'64-76'
p8034
aS'\xc2\xa0'
p8035
aa(lp8036
S'1:47'
p8037
aS'J.R. Smith misses 18-foot two point shot'
p8038
aS'64-76'
p8039
aS'\xc2\xa0'
p8040
aa(lp8041
S'1:47'
p8042
aS'Jared Jeffries offensive rebound'
p8043
aS'64-76'
p8044
aS'\xc2\xa0'
p8045
aa(lp8046
S'1:34'
p8047
aS'Baron Davis misses 24-foot three point jumper'
p8048
aS'64-76'
p8049
aS'\xc2\xa0'
p8050
aa(lp8051
S'1:32'
p8052
aS'\xc2\xa0'
p8053
aS'64-76'
p8054
aS'LeBron James defensive rebound'
p8055
aa(lp8056
S'1:21'
p8057
aS'\xc2\xa0'
p8058
aS'64-76'
p8059
aS'Norris Cole bad pass (Landry Fields steals)'
p8060
aa(lp8061
S'1:17'
p8062
aS'\xc2\xa0'
p8063
aS'64-76'
p8064
aS'Mike Miller shooting foul (J.R. Smith draws the foul)'
p8065
aa(lp8066
S'1:17'
p8067
aS'J.R. Smith misses free throw 1 of 2'
p8068
aS'64-76'
p8069
aS'\xc2\xa0'
p8070
aa(lp8071
S'1:17'
p8072
aS'New York offensive team rebound'
p8073
aS'64-76'
p8074
aS'\xc2\xa0'
p8075
aa(lp8076
S'1:17'
p8077
aS'J.R. Smith misses free throw 2 of 2'
p8078
aS'64-76'
p8079
aS'\xc2\xa0'
p8080
aa(lp8081
S'1:16'
p8082
aS'\xc2\xa0'
p8083
aS'64-76'
p8084
aS'LeBron James defensive rebound'
p8085
aa(lp8086
S'1:01'
p8087
aS'\xc2\xa0'
p8088
aS'64-76'
p8089
aS'LeBron James misses 9-foot jumper'
p8090
aa(lp8091
S'1:00'
p8092
aS'\xc2\xa0'
p8093
aS'64-76'
p8094
aS'Miami defensive team rebound'
p8095
aa(lp8096
S'0:49'
p8097
aS'Landry Fields makes layup (Baron Davis assists)'
p8098
aS'66-76'
p8099
aS'\xc2\xa0'
p8100
aa(lp8101
S'0:42'
p8102
aS'Miami 20 Sec. timeout'
p8103
aa(lp8104
S'0:36'
p8105
aS'Jared Jeffries shooting foul (LeBron James draws the foul)'
p8106
aS'66-76'
p8107
aS'\xc2\xa0'
p8108
aa(lp8109
S'0:36'
p8110
aS'\xc2\xa0'
p8111
aS'66-77'
p8112
aS'LeBron James makes free throw 1 of 2'
p8113
aa(lp8114
S'0:36'
p8115
aS'\xc2\xa0'
p8116
aS'66-78'
p8117
aS'LeBron James makes free throw 2 of 2'
p8118
aa(lp8119
S'0:14'
p8120
aS'J.R. Smith misses 14-foot jumper'
p8121
aS'66-78'
p8122
aS'\xc2\xa0'
p8123
aa(lp8124
S'0:13'
p8125
aS'\xc2\xa0'
p8126
aS'66-78'
p8127
aS'Mike Miller defensive rebound'
p8128
aa(lp8129
S'0:00'
p8130
aS'\xc2\xa0'
p8131
aS'66-80'
p8132
aS'LeBron James makes 16-foot jumper'
p8133
aa(lp8134
S'0:00'
p8135
aS'J.R. Smith misses 52-foot three point jumper'
p8136
aS'66-80'
p8137
aS'\xc2\xa0'
p8138
aa(lp8139
S'0:00'
p8140
aS'New York offensive team rebound'
p8141
aS'66-80'
p8142
aS'\xc2\xa0'
p8143
aa(lp8144
S'0:00'
p8145
aS'End of the 3rd Quarter'
p8146
aa(lp8147
S'4th Quarter Summary'
p8148
aa(lp8149
a(lp8150
S'12:00'
p8151
aS'Start of the 4th Quarter'
p8152
aa(lp8153
S'11:40'
p8154
aS'Baron Davis misses driving layup'
p8155
aS'66-80'
p8156
aS'\xc2\xa0'
p8157
aa(lp8158
S'11:37'
p8159
aS'Jared Jeffries makes tip shot'
p8160
aS'68-80'
p8161
aS'\xc2\xa0'
p8162
aa(lp8163
S'11:38'
p8164
aS'Jared Jeffries offensive rebound'
p8165
aS'68-80'
p8166
aS'\xc2\xa0'
p8167
aa(lp8168
S'11:11'
p8169
aS'\xc2\xa0'
p8170
aS'68-82'
p8171
aS'Norris Cole makes 19-foot jumper (LeBron James assists)'
p8172
aa(lp8173
S'10:44'
p8174
aS'Steve Novak makes 25-foot three point jumper'
p8175
aS'71-82'
p8176
aS'\xc2\xa0'
p8177
aa(lp8178
S'10:21'
p8179
aS'\xc2\xa0'
p8180
aS'71-82'
p8181
aS'Mike Miller misses 26-foot three point jumper'
p8182
aa(lp8183
S'10:19'
p8184
aS'Landry Fields defensive rebound'
p8185
aS'71-82'
p8186
aS'\xc2\xa0'
p8187
aa(lp8188
S'10:06'
p8189
aS'Steve Novak misses 26-foot three point jumper'
p8190
aS'71-82'
p8191
aS'\xc2\xa0'
p8192
aa(lp8193
S'10:04'
p8194
aS'\xc2\xa0'
p8195
aS'71-82'
p8196
aS'Udonis Haslem defensive rebound'
p8197
aa(lp8198
S'10:04'
p8199
aS'Jared Jeffries personal foul (Udonis Haslem draws the foul)'
p8200
aS'71-82'
p8201
aS'\xc2\xa0'
p8202
aa(lp8203
S'10:04'
p8204
aS'Tyson Chandler enters the game for Jared Jeffries'
p8205
aS'71-82'
p8206
aS'\xc2\xa0'
p8207
aa(lp8208
S'9:56'
p8209
aS'\xc2\xa0'
p8210
aS'71-82'
p8211
aS'Norris Cole offensive charge (J.R. Smith draws the foul)'
p8212
aa(lp8213
S'9:56'
p8214
aS'\xc2\xa0'
p8215
aS'71-82'
p8216
aS'Norris Cole turnover'
p8217
aa(lp8218
S'9:41'
p8219
aS'J.R. Smith makes 9-foot two point shot'
p8220
aS'73-82'
p8221
aS'\xc2\xa0'
p8222
aa(lp8223
S'9:22'
p8224
aS'\xc2\xa0'
p8225
aS'73-82'
p8226
aS"Baron Davis blocks Shane Battier's 23-foot three point jumper"
p8227
aa(lp8228
S'9:21'
p8229
aS'\xc2\xa0'
p8230
aS'73-82'
p8231
aS'Shane Battier offensive rebound'
p8232
aa(lp8233
S'9:19'
p8234
aS'\xc2\xa0'
p8235
aS'73-82'
p8236
aS'Shane Battier misses driving layup'
p8237
aa(lp8238
S'9:03'
p8239
aS'J.R. Smith makes 25-foot three point jumper (Baron Davis assists)'
p8240
aS'76-82'
p8241
aS'\xc2\xa0'
p8242
aa(lp8243
S'9:03'
p8244
aS'Miami full timeout'
p8245
aa(lp8246
S'9:18'
p8247
aS'\xc2\xa0'
p8248
aS'76-82'
p8249
aS'Udonis Haslem offensive rebound'
p8250
aa(lp8251
S'9:18'
p8252
aS'\xc2\xa0'
p8253
aS'76-84'
p8254
aS'Udonis Haslem makes tip shot'
p8255
aa(lp8256
S'9:03'
p8257
aS'\xc2\xa0'
p8258
aS'76-84'
p8259
aS'Chris Bosh enters the game for LeBron James'
p8260
aa(lp8261
S'9:03'
p8262
aS'\xc2\xa0'
p8263
aS'76-84'
p8264
aS'Dwyane Wade enters the game for Mike Miller'
p8265
aa(lp8266
S'8:41'
p8267
aS'\xc2\xa0'
p8268
aS'76-86'
p8269
aS'Chris Bosh makes 17-foot jumper (Norris Cole assists)'
p8270
aa(lp8271
S'8:29'
p8272
aS'\xc2\xa0'
p8273
aS'76-86'
p8274
aS'Udonis Haslem personal foul (Tyson Chandler draws the foul)'
p8275
aa(lp8276
S'8:15'
p8277
aS'Baron Davis misses 27-foot three point jumper'
p8278
aS'76-86'
p8279
aS'\xc2\xa0'
p8280
aa(lp8281
S'8:14'
p8282
aS'\xc2\xa0'
p8283
aS'76-86'
p8284
aS'Chris Bosh defensive rebound'
p8285
aa(lp8286
S'7:54'
p8287
aS'\xc2\xa0'
p8288
aS'76-86'
p8289
aS'Norris Cole misses 18-foot jumper'
p8290
aa(lp8291
S'7:54'
p8292
aS'\xc2\xa0'
p8293
aS'76-86'
p8294
aS'Norris Cole offensive rebound'
p8295
aa(lp8296
S'7:50'
p8297
aS'\xc2\xa0'
p8298
aS'76-88'
p8299
aS'Norris Cole makes layup'
p8300
aa(lp8301
S'7:33'
p8302
aS'Landry Fields misses 17-foot jumper'
p8303
aS'76-88'
p8304
aS'\xc2\xa0'
p8305
aa(lp8306
S'7:31'
p8307
aS'\xc2\xa0'
p8308
aS'76-88'
p8309
aS'Udonis Haslem defensive rebound'
p8310
aa(lp8311
S'7:22'
p8312
aS'\xc2\xa0'
p8313
aS'76-88'
p8314
aS'Dwyane Wade misses two point shot'
p8315
aa(lp8316
S'7:20'
p8317
aS'Tyson Chandler defensive rebound'
p8318
aS'76-88'
p8319
aS'\xc2\xa0'
p8320
aa(lp8321
S'7:13'
p8322
aS'Baron Davis misses driving layup'
p8323
aS'76-88'
p8324
aS'\xc2\xa0'
p8325
aa(lp8326
S'7:13'
p8327
aS'\xc2\xa0'
p8328
aS'76-88'
p8329
aS'Udonis Haslem defensive rebound'
p8330
aa(lp8331
S'7:05'
p8332
aS'\xc2\xa0'
p8333
aS'76-88'
p8334
aS'Shane Battier misses 23-foot three point jumper'
p8335
aa(lp8336
S'7:05'
p8337
aS'\xc2\xa0'
p8338
aS'76-88'
p8339
aS'Dwyane Wade offensive rebound'
p8340
aa(lp8341
S'7:03'
p8342
aS'\xc2\xa0'
p8343
aS'76-90'
p8344
aS'Dwyane Wade makes 3-foot jumper'
p8345
aa(lp8346
S'7:03'
p8347
aS'New York full timeout'
p8348
aa(lp8349
S'7:03'
p8350
aS'Amare Stoudemire enters the game for Landry Fields'
p8351
aS'76-90'
p8352
aS'\xc2\xa0'
p8353
aa(lp8354
S'7:03'
p8355
aS'Jeremy Lin enters the game for J.R. Smith'
p8356
aS'76-90'
p8357
aS'\xc2\xa0'
p8358
aa(lp8359
S'7:03'
p8360
aS'Carmelo Anthony enters the game for Baron Davis'
p8361
aS'76-90'
p8362
aS'\xc2\xa0'
p8363
aa(lp8364
S'7:03'
p8365
aS'\xc2\xa0'
p8366
aS'76-90'
p8367
aS'LeBron James enters the game for Shane Battier'
p8368
aa(lp8369
S'7:03'
p8370
aS'\xc2\xa0'
p8371
aS'76-90'
p8372
aS'Mario Chalmers enters the game for Norris Cole'
p8373
aa(lp8374
S'6:47'
p8375
aS'Carmelo Anthony misses 18-foot jumper'
p8376
aS'76-90'
p8377
aS'\xc2\xa0'
p8378
aa(lp8379
S'6:46'
p8380
aS'\xc2\xa0'
p8381
aS'76-90'
p8382
aS'Chris Bosh defensive rebound'
p8383
aa(lp8384
S'6:26'
p8385
aS'\xc2\xa0'
p8386
aS'76-92'
p8387
aS'LeBron James makes 22-foot jumper (Dwyane Wade assists)'
p8388
aa(lp8389
S'6:13'
p8390
aS'Carmelo Anthony makes driving layup'
p8391
aS'78-92'
p8392
aS'\xc2\xa0'
p8393
aa(lp8394
S'5:54'
p8395
aS'\xc2\xa0'
p8396
aS'78-92'
p8397
aS'Dwyane Wade misses 10-foot two point shot'
p8398
aa(lp8399
S'5:52'
p8400
aS'Tyson Chandler defensive rebound'
p8401
aS'78-92'
p8402
aS'\xc2\xa0'
p8403
aa(lp8404
S'5:31'
p8405
aS'Jeremy Lin misses 11-foot two point shot'
p8406
aS'78-92'
p8407
aS'\xc2\xa0'
p8408
aa(lp8409
S'5:30'
p8410
aS'\xc2\xa0'
p8411
aS'78-92'
p8412
aS'Udonis Haslem defensive rebound'
p8413
aa(lp8414
S'5:22'
p8415
aS'\xc2\xa0'
p8416
aS'78-92'
p8417
aS'LeBron James bad pass (Jeremy Lin steals)'
p8418
aa(lp8419
S'5:16'
p8420
aS'Tyson Chandler makes two point shot (Amare Stoudemire assists)'
p8421
aS'80-92'
p8422
aS'\xc2\xa0'
p8423
aa(lp8424
S'5:07'
p8425
aS'Miami full timeout'
p8426
aa(lp8427
S'5:07'
p8428
aS'J.R. Smith enters the game for Steve Novak'
p8429
aS'80-92'
p8430
aS'\xc2\xa0'
p8431
aa(lp8432
S'4:54'
p8433
aS'\xc2\xa0'
p8434
aS'80-92'
p8435
aS'Udonis Haslem misses jumper'
p8436
aa(lp8437
S'4:52'
p8438
aS'\xc2\xa0'
p8439
aS'80-92'
p8440
aS'Miami defensive team rebound'
p8441
aa(lp8442
S'4:33'
p8443
aS'Tyson Chandler makes dunk (Carmelo Anthony assists)'
p8444
aS'82-92'
p8445
aS'\xc2\xa0'
p8446
aa(lp8447
S'4:13'
p8448
aS'\xc2\xa0'
p8449
aS'82-94'
p8450
aS'Chris Bosh makes 21-foot jumper (Mario Chalmers assists)'
p8451
aa(lp8452
S'3:58'
p8453
aS'Carmelo Anthony misses 19-foot two point shot'
p8454
aS'82-94'
p8455
aS'\xc2\xa0'
p8456
aa(lp8457
S'3:57'
p8458
aS'\xc2\xa0'
p8459
aS'82-94'
p8460
aS'Dwyane Wade defensive rebound'
p8461
aa(lp8462
S'3:33'
p8463
aS'\xc2\xa0'
p8464
aS'82-96'
p8465
aS'Udonis Haslem makes 19-foot jumper (LeBron James assists)'
p8466
aa(lp8467
S'3:17'
p8468
aS'J.R. Smith makes driving layup'
p8469
aS'84-96'
p8470
aS'\xc2\xa0'
p8471
aa(lp8472
S'2:56'
p8473
aS'\xc2\xa0'
p8474
aS'84-96'
p8475
aS'Mario Chalmers lost ball (J.R. Smith steals)'
p8476
aa(lp8477
S'2:48'
p8478
aS'\xc2\xa0'
p8479
aS'84-96'
p8480
aS'Chris Bosh shooting foul (Amare Stoudemire draws the foul)'
p8481
aa(lp8482
S'2:48'
p8483
aS'Amare Stoudemire makes free throw 1 of 2'
p8484
aS'85-96'
p8485
aS'\xc2\xa0'
p8486
aa(lp8487
S'2:48'
p8488
aS'Amare Stoudemire makes free throw 2 of 2'
p8489
aS'86-96'
p8490
aS'\xc2\xa0'
p8491
aa(lp8492
S'2:28'
p8493
aS'\xc2\xa0'
p8494
aS'86-98'
p8495
aS'Chris Bosh makes layup'
p8496
aa(lp8497
S'2:15'
p8498
aS'J.R. Smith misses 26-foot three point jumper'
p8499
aS'86-98'
p8500
aS'\xc2\xa0'
p8501
aa(lp8502
S'2:15'
p8503
aS'Jeremy Lin offensive rebound'
p8504
aS'86-98'
p8505
aS'\xc2\xa0'
p8506
aa(lp8507
S'2:11'
p8508
aS'Jeremy Lin misses 17-foot jumper'
p8509
aS'86-98'
p8510
aS'\xc2\xa0'
p8511
aa(lp8512
S'2:10'
p8513
aS'\xc2\xa0'
p8514
aS'86-98'
p8515
aS'LeBron James defensive rebound'
p8516
aa(lp8517
S'1:52'
p8518
aS'\xc2\xa0'
p8519
aS'86-98'
p8520
aS'LeBron James misses 21-foot jumper'
p8521
aa(lp8522
S'1:51'
p8523
aS'Jeremy Lin defensive rebound'
p8524
aS'86-98'
p8525
aS'\xc2\xa0'
p8526
aa(lp8527
S'1:40'
p8528
aS'Carmelo Anthony makes dunk (J.R. Smith assists)'
p8529
aS'88-98'
p8530
aS'\xc2\xa0'
p8531
aa(lp8532
S'1:16'
p8533
aS'\xc2\xa0'
p8534
aS'88-98'
p8535
aS'LeBron James misses 16-foot two point shot'
p8536
aa(lp8537
S'1:15'
p8538
aS'Tyson Chandler defensive rebound'
p8539
aS'88-98'
p8540
aS'\xc2\xa0'
p8541
aa(lp8542
S'1:10'
p8543
aS"Chris Bosh blocks Carmelo Anthony's layup"
p8544
aS'88-98'
p8545
aS'\xc2\xa0'
p8546
aa(lp8547
S'1:09'
p8548
aS'\xc2\xa0'
p8549
aS'88-98'
p8550
aS'Udonis Haslem defensive rebound'
p8551
aa(lp8552
S'1:07'
p8553
aS'\xc2\xa0'
p8554
aS'88-100'
p8555
aS'LeBron James makes layup (Dwyane Wade assists)'
p8556
aa(lp8557
S'0:54'
p8558
aS'Jeremy Lin misses 8-foot two point shot'
p8559
aS'88-100'
p8560
aS'\xc2\xa0'
p8561
aa(lp8562
S'0:53'
p8563
aS'Carmelo Anthony offensive rebound'
p8564
aS'88-100'
p8565
aS'\xc2\xa0'
p8566
aa(lp8567
S'0:52'
p8568
aS'Carmelo Anthony misses tip shot'
p8569
aS'88-100'
p8570
aS'\xc2\xa0'
p8571
aa(lp8572
S'0:51'
p8573
aS'\xc2\xa0'
p8574
aS'88-100'
p8575
aS'Chris Bosh defensive rebound'
p8576
aa(lp8577
S'0:42'
p8578
aS'\xc2\xa0'
p8579
aS'88-100'
p8580
aS'Dwyane Wade lost ball (Jeremy Lin steals)'
p8581
aa(lp8582
S'0:40'
p8583
aS'Jeremy Lin double dribble'
p8584
aS'88-100'
p8585
aS'\xc2\xa0'
p8586
aa(lp8587
S'0:20'
p8588
aS'\xc2\xa0'
p8589
aS'88-102'
p8590
aS'Chris Bosh makes 15-foot jumper (Mario Chalmers assists)'
p8591
aa(lp8592
S'0:13'
p8593
aS'J.R. Smith misses 13-foot jumper'
p8594
aS'88-102'
p8595
aS'\xc2\xa0'
p8596
aa(lp8597
S'0:11'
p8598
aS'\xc2\xa0'
p8599
aS'88-102'
p8600
aS'LeBron James defensive rebound'
p8601
aa(lp8602
S'0:08'
p8603
aS'\xc2\xa0'
p8604
aS'88-102'
p8605
aS'LeBron James lost ball (Jeremy Lin steals)'
p8606
aa(lp8607
S'0:06'
p8608
aS'Jeremy Lin misses layup'
p8609
aS'88-102'
p8610
aS'\xc2\xa0'
p8611
aa(lp8612
S'0:05'
p8613
aS'\xc2\xa0'
p8614
aS'88-102'
p8615
aS'Udonis Haslem defensive rebound'
p8616
aa(lp8617
S'0:00'
p8618
aS'End of the 4th Quarter'
p8619
aa(lp8620
S'0:00'
p8621
aS'End Game'
p8622
aasg2161
(lp8623
S'TIME'
p8624
aS'NEW YORK'
p8625
aS'SCORE'
p8626
aS'MIAMI'
p8627
ass.